
playstationtest.elf:     file format elf32-littlenios2
playstationtest.elf
architecture: nios2:r1, flags 0x00000112:
EXEC_P, HAS_SYMS, D_PAGED
start address 0x00000244

Program Header:
    LOAD off    0x00001000 vaddr 0x00000000 paddr 0x00000000 align 2**12
         filesz 0x00000020 memsz 0x00000020 flags r-x
    LOAD off    0x00001020 vaddr 0x00000020 paddr 0x00000020 align 2**12
         filesz 0x0000d600 memsz 0x0000d600 flags r-x
    LOAD off    0x0000e620 vaddr 0x0000d620 paddr 0x0000f094 align 2**12
         filesz 0x00001a74 memsz 0x00001a74 flags rw-
    LOAD off    0x00010b08 vaddr 0x00010b08 paddr 0x00010b08 align 2**12
         filesz 0x00000000 memsz 0x000073a8 flags rw-

Sections:
Idx Name          Size      VMA       LMA       File off  Algn
  0 .entry        00000020  00000000  00000000  00001000  2**5
                  CONTENTS, ALLOC, LOAD, READONLY, CODE
  1 .exceptions   00000224  00000020  00000020  00001020  2**2
                  CONTENTS, ALLOC, LOAD, READONLY, CODE
  2 .text         0000d0e0  00000244  00000244  00001244  2**2
                  CONTENTS, ALLOC, LOAD, READONLY, CODE
  3 .rodata       000002fc  0000d324  0000d324  0000e324  2**2
                  CONTENTS, ALLOC, LOAD, READONLY, DATA
  4 .rwdata       00001a74  0000d620  0000f094  0000e620  2**2
                  CONTENTS, ALLOC, LOAD, DATA, SMALL_DATA
  5 .bss          000073a8  00010b08  00010b08  00010b08  2**2
                  ALLOC, SMALL_DATA
  6 .SDRAM        00000000  00017eb0  00017eb0  00010094  2**0
                  CONTENTS
  7 .Flash_flash_data 00000000  0c000000  0c000000  00010094  2**0
                  CONTENTS
  8 .comment      00000023  00000000  00000000  00010094  2**0
                  CONTENTS, READONLY
  9 .debug_aranges 00000838  00000000  00000000  000100b8  2**3
                  CONTENTS, READONLY, DEBUGGING
 10 .debug_info   00014016  00000000  00000000  000108f0  2**0
                  CONTENTS, READONLY, DEBUGGING
 11 .debug_abbrev 00004e75  00000000  00000000  00024906  2**0
                  CONTENTS, READONLY, DEBUGGING
 12 .debug_line   00006278  00000000  00000000  0002977b  2**0
                  CONTENTS, READONLY, DEBUGGING
 13 .debug_frame  00002510  00000000  00000000  0002f9f4  2**2
                  CONTENTS, READONLY, DEBUGGING
 14 .debug_str    000037f1  00000000  00000000  00031f04  2**0
                  CONTENTS, READONLY, DEBUGGING
 15 .debug_loc    000009c4  00000000  00000000  000356f5  2**0
                  CONTENTS, READONLY, DEBUGGING
 16 .debug_alt_sim_info 00000020  00000000  00000000  000360bc  2**2
                  CONTENTS, READONLY, DEBUGGING
 17 .debug_ranges 00000148  00000000  00000000  000360e0  2**3
                  CONTENTS, READONLY, DEBUGGING
 18 .thread_model 00000006  00000000  00000000  0003a4bc  2**0
                  CONTENTS, READONLY
 19 .cpu          00000005  00000000  00000000  0003a4c2  2**0
                  CONTENTS, READONLY
 20 .qsys         00000001  00000000  00000000  0003a4c7  2**0
                  CONTENTS, READONLY
 21 .simulation_enabled 00000001  00000000  00000000  0003a4c8  2**0
                  CONTENTS, READONLY
 22 .sysid_hash   00000004  00000000  00000000  0003a4c9  2**0
                  CONTENTS, READONLY
 23 .sysid_base   00000004  00000000  00000000  0003a4cd  2**0
                  CONTENTS, READONLY
 24 .sysid_time   00000004  00000000  00000000  0003a4d1  2**0
                  CONTENTS, READONLY
 25 .stderr_dev   00000009  00000000  00000000  0003a4d5  2**0
                  CONTENTS, READONLY
 26 .stdin_dev    00000009  00000000  00000000  0003a4de  2**0
                  CONTENTS, READONLY
 27 .stdout_dev   00000009  00000000  00000000  0003a4e7  2**0
                  CONTENTS, READONLY
 28 .sopc_system_name 0000000b  00000000  00000000  0003a4f0  2**0
                  CONTENTS, READONLY
 29 .quartus_project_dir 00000068  00000000  00000000  0003a4fb  2**0
                  CONTENTS, READONLY
 30 .jdi          0000abc5  00000000  00000000  0003a563  2**0
                  CONTENTS, READONLY
 31 .sopcinfo     00195378  00000000  00000000  00045128  2**0
                  CONTENTS, READONLY
SYMBOL TABLE:
00000000 l    d  .entry	00000000 .entry
00000020 l    d  .exceptions	00000000 .exceptions
00000244 l    d  .text	00000000 .text
0000d324 l    d  .rodata	00000000 .rodata
0000d620 l    d  .rwdata	00000000 .rwdata
00010b08 l    d  .bss	00000000 .bss
00017eb0 l    d  .SDRAM	00000000 .SDRAM
0c000000 l    d  .Flash_flash_data	00000000 .Flash_flash_data
00000000 l    d  .comment	00000000 .comment
00000000 l    d  .debug_aranges	00000000 .debug_aranges
00000000 l    d  .debug_info	00000000 .debug_info
00000000 l    d  .debug_abbrev	00000000 .debug_abbrev
00000000 l    d  .debug_line	00000000 .debug_line
00000000 l    d  .debug_frame	00000000 .debug_frame
00000000 l    d  .debug_str	00000000 .debug_str
00000000 l    d  .debug_loc	00000000 .debug_loc
00000000 l    d  .debug_alt_sim_info	00000000 .debug_alt_sim_info
00000000 l    d  .debug_ranges	00000000 .debug_ranges
00000000 l    df *ABS*	00000000 /home/codedwrench/Dropbox/school/nios/kbs_periode_4_fpga_game/playstationtest_bsp//obj/HAL/src/crt0.o
0000027c l       .text	00000000 alt_after_alt_main
00000000 l    df *ABS*	00000000 alt_irq_handler.c
00000000 l    df *ABS*	00000000 alt_instruction_exception_entry.c
00000000 l    df *ABS*	00000000 graphicslib.c
00000000 l    df *ABS*	00000000 main.c
00000000 l    df *ABS*	00000000 alt_load.c
00000fac l     F .text	00000064 alt_load_section
00000000 l    df *ABS*	00000000 alt_main.c
00000000 l    df *ABS*	00000000 alt_env_lock.c
0000efec l     O .rwdata	00000004 lockid
00010b14 l     O .bss	00000004 locks
00000000 l    df *ABS*	00000000 alt_malloc_lock.c
0000eff0 l     O .rwdata	00000004 lockid
00010b1c l     O .bss	00000004 locks
00000000 l    df *ABS*	00000000 os_core.c
00002a50 l     F .text	00000044 OS_InitMisc
00002a94 l     F .text	00000068 OS_InitRdyList
00002bf4 l     F .text	000000e0 OS_InitTCBList
00002974 l     F .text	000000dc OS_InitEventList
00002afc l     F .text	0000007c OS_InitTaskIdle
00002b78 l     F .text	0000007c OS_InitTaskStat
00002e54 l     F .text	00000070 OS_SchedNew
00000000 l    df *ABS*	00000000 os_dbg.c
00000000 l    df *ABS*	00000000 os_flag.c
00004c58 l     F .text	00000110 OS_FlagTaskRdy
000049b0 l     F .text	000001c4 OS_FlagBlock
00000000 l    df *ABS*	00000000 os_mem.c
00000000 l    df *ABS*	00000000 os_q.c
00000000 l    df *ABS*	00000000 os_sem.c
00000000 l    df *ABS*	00000000 os_task.c
00000000 l    df *ABS*	00000000 os_time.c
00000000 l    df *ABS*	00000000 alt_sys_init.c
00009100 l     F .text	00000038 alt_dev_reg
0000d620 l     O .rwdata	0000106c JTAG_UART
0000e68c l     O .rwdata	00000030 AV_Config
0000e6bc l     O .rwdata	00000030 Audio_Subsystem_Audio
0000e6ec l     O .rwdata	0000002c Char_LCD_16x2
0000e718 l     O .rwdata	0000002c IrDA
0000e744 l     O .rwdata	0000002c Expansion_JP5
0000e770 l     O .rwdata	0000002c Green_LEDs
0000e79c l     O .rwdata	0000002c HEX3_HEX0
0000e7c8 l     O .rwdata	0000002c HEX7_HEX4
0000e7f4 l     O .rwdata	0000002c Pushbuttons
0000e820 l     O .rwdata	0000002c Red_LEDs
0000e84c l     O .rwdata	0000002c Slider_Switches
0000e878 l     O .rwdata	00000038 PS2_Port
0000e8b0 l     O .rwdata	00000038 PS2_Port_Dual
0000e8e8 l     O .rwdata	0000002c Serial_Port
0000e914 l     O .rwdata	00000034 USB
0000e948 l     O .rwdata	00000048 VGA_Subsystem_VGA_Char_Buffer
0000e990 l     O .rwdata	00000054 VGA_Subsystem_VGA_Pixel_DMA
0000e9e4 l     O .rwdata	0000002c SD_Card
00000000 l    df *ABS*	00000000 altera_avalon_jtag_uart_fd.c
00000000 l    df *ABS*	00000000 altera_avalon_jtag_uart_init.c
000097e8 l     F .text	000002a8 altera_avalon_jtag_uart_irq
00009a90 l     F .text	00000110 altera_avalon_jtag_uart_timeout
00000000 l    df *ABS*	00000000 altera_avalon_jtag_uart_ioctl.c
00000000 l    df *ABS*	00000000 altera_avalon_jtag_uart_read.c
00000000 l    df *ABS*	00000000 altera_avalon_jtag_uart_write.c
00000000 l    df *ABS*	00000000 altera_avalon_timer_sc.c
0000a268 l     F .text	00000078 alt_avalon_timer_sc_irq
00000000 l    df *ABS*	00000000 altera_up_avalon_character_lcd.c
00000000 l    df *ABS*	00000000 altera_up_avalon_irda.c
00000000 l    df *ABS*	00000000 altera_up_avalon_ps2.c
00000000 l    df *ABS*	00000000 altera_up_avalon_rs232.c
00000000 l    df *ABS*	00000000 altera_up_avalon_video_character_buffer_with_dma.c
00000000 l    df *ABS*	00000000 alt_alarm_start.c
00000000 l    df *ABS*	00000000 alt_close.c
0000ba28 l     F .text	00000050 alt_get_errno
00000000 l    df *ABS*	00000000 alt_dcache_flush_all.c
00000000 l    df *ABS*	00000000 alt_dev.c
0000bb64 l     F .text	0000002c alt_dev_null_write
00000000 l    df *ABS*	00000000 alt_dev_llist_insert.c
0000bb90 l     F .text	00000050 alt_get_errno
00000000 l    df *ABS*	00000000 alt_do_ctors.c
00000000 l    df *ABS*	00000000 alt_do_dtors.c
00000000 l    df *ABS*	00000000 alt_errno.c
00000000 l    df *ABS*	00000000 alt_find_dev.c
00000000 l    df *ABS*	00000000 alt_icache_flush_all.c
00000000 l    df *ABS*	00000000 alt_io_redirect.c
0000bdfc l     F .text	000000c0 alt_open_fd
00000000 l    df *ABS*	00000000 alt_irq_register.c
00000000 l    df *ABS*	00000000 alt_irq_vars.c
00000000 l    df *ABS*	00000000 alt_open.c
0000c0e4 l     F .text	00000050 alt_get_errno
0000c134 l     F .text	000000cc alt_file_locked
00000000 l    df *ABS*	00000000 alt_release_fd.c
00000000 l    df *ABS*	00000000 alt_tick.c
00000000 l    df *ABS*	00000000 altera_nios2_gen2_irq.c
00000000 l    df *ABS*	00000000 os_cpu_a.o
00000040 l       *ABS*	00000000 OSCtxSw_SWITCH_PC
00000000 l    df *ABS*	00000000 os_cpu_c.c
00000014 l       *ABS*	00000000 OSTCBNext_OFFSET
00000032 l       *ABS*	00000000 OSTCBPrio_OFFSET
00000000 l       *ABS*	00000000 OSTCBStkPtr_OFFSET
00000000 l    df *ABS*	00000000 alt_find_file.c
00000000 l    df *ABS*	00000000 alt_get_fd.c
00000000 l    df *ABS*	00000000 alt_icache_flush.c
00000000 l    df *ABS*	00000000 atexit.c
00000000 l    df *ABS*	00000000 exit.c
00000000 l    df *ABS*	00000000 impure.c
0000ebb8 l     O .rwdata	00000424 impure_data
00000000 l    df *ABS*	00000000 int_errno.c
00000000 l    df *ABS*	00000000 memcmp.c
00000000 l    df *ABS*	00000000 memcpy.c
00000000 l    df *ABS*	00000000 memset.c
00000000 l    df *ABS*	00000000 strcmp.c
00000000 l    df *ABS*	00000000 strlen.c
00000000 l    df *ABS*	00000000 __atexit.c
00000000 l    df *ABS*	00000000 __call_atexit.c
00000000 l    df *ABS*	00000000 alt_exit.c
00010b84 g     O .bss	00000004 alt_instruction_exception_handler
0000f03e g     O .rwdata	00000002 OSTaskNameSize
00001090 g     F .text	000000d4 alt_main
00017db0 g     O .bss	00000100 alt_irq
0000ae04 g     F .text	0000005c alt_up_ps2_disable_read_interrupt
000054bc g     F .text	000000d0 OS_MemInit
00000400 g     F .text	00000144 drawrectangle
0000f094 g       *ABS*	00000000 __flash_rwdata_start
0000909c g     F .text	00000064 OSTimeSet
0000a3d4 g     F .text	0000003c alt_up_character_lcd_send_cmd
000016cc g     F .text	00000610 OSEventPendMulti
0000c7a0 g     F .text	00000020 OSTaskCreateHook
00010b8c g     O .bss	00002000 task1_stk
0000f016 g     O .rwdata	00000002 OSMboxEn
00001d30 g     F .text	0000007c OSIntEnter
0000b78c g     F .text	00000100 alt_up_char_buffer_string
0000ac24 g     F .text	00000034 read_CE_bit
0000f026 g     O .rwdata	00000002 OSQEn
000013a0 g     F .text	000000d0 __malloc_unlock
0000c7fc g     F .text	0000001c OSTaskStatHook
0000afa8 g     F .text	000000a4 alt_up_ps2_read_data_byte_timeout
0000b49c g     F .text	00000090 alt_up_rs232_read_fd
00010b24 g     O .bss	00000001 OSLockNesting
00000544 g     F .text	00000218 drawline
0000f064 g     O .rwdata	00000002 OSDataSize
00010b25 g     O .bss	00000001 OSRunning
0000b6c0 g     F .text	000000cc alt_up_char_buffer_draw
0000c834 g     F .text	0000001c OSInitHookBegin
0000f05c g     O .rwdata	00000002 OSTmrSize
0000efdc g     O .rwdata	00000004 pixel_buffer_start
00010b28 g     O .bss	00000004 OSIdleCtr
0000c554 g     F .text	00000020 altera_nios2_gen2_irq_init
0000c620 g       .text	00000000 OSStartTsk
00000000  w      *UND*	00000000 __errno
0000a360 g     F .text	00000074 get_DDRAM_addr
0000318c g     F .text	000002d4 OS_TCBInit
00000000 g     F .entry	0000001c __reset
0000f062 g     O .rwdata	00000002 OSTmrWheelTblSize
00000020 g       *ABS*	00000000 __flash_exceptions_start
0000f002 g     O .rwdata	00000002 OSEventSize
0000075c g     F .text	00000298 drawcircle
00010b2c g     O .bss	00000001 OSPrioHighRdy
0000c7c0 g     F .text	00000020 OSTaskDelHook
00010b88 g     O .bss	00000004 errno
0000c600 g       .text	00000000 OSStartHighRdy
000079a0 g     F .text	000001ec OSTaskCreateExt
000044fc g     F .text	00000068 OSFlagPendGetFlagsRdy
0000f042 g     O .rwdata	00000002 OSTaskStatStkSize
000035ec g     F .text	00000308 OSFlagAccept
00005b90 g     F .text	000000b8 OSQFlush
0000558c g     F .text	00000140 OSQAccept
00010b0c g     O .bss	00000004 alt_argv
00016fdc g       *ABS*	00000000 _gp
000077e4 g     F .text	000001bc OSTaskCreate
000072a4 g     F .text	00000540 OSTaskChangePrio
00010b20 g     O .bss	00000004 alt_heapsem
00003460 g     F .text	0000018c OSDebugInit
00007b8c g     F .text	000003e0 OSTaskDel
0000ea38 g     O .rwdata	00000180 alt_fd_list
00014b8c g     O .bss	00000370 OSFlagTbl
00002760 g     F .text	000000b4 OS_EventTaskRemove
0000bd3c g     F .text	00000090 alt_find_dev
0000cca8 g     F .text	00000138 memcpy
0000f02c g     O .rwdata	00000002 OSRdyTblSize
0000a570 g     F .text	00000050 alt_up_character_lcd_write_fd
0000b88c g     F .text	0000005c alt_up_char_buffer_clear
0000bebc g     F .text	00000078 alt_io_redirect
0000d324 g       *ABS*	00000000 __DTOR_END__
0000aaf0 g     F .text	00000090 alt_up_irda_write_fd
0000b428 g     F .text	00000074 alt_up_rs232_read_data
0000cb44 g     F .text	0000009c alt_exception_cause_generated_bad_addr
00001470 g     F .text	00000120 OSEventNameGet
0000f010 g     O .rwdata	00000002 OSFlagMax
00001dac g     F .text	000000f4 OSIntExit
0000f04a g     O .rwdata	00000002 OSTCBSize
00010b2d g     O .bss	00000001 OSPrioCur
0000a8ec g     F .text	00000040 alt_up_irda_get_used_space_in_read_FIFO
00009cf4 g     F .text	000002b4 altera_avalon_jtag_uart_read
00000000  w      *UND*	00000000 malloc
0000f030 g     O .rwdata	00000002 OSStkWidth
0000f024 g     O .rwdata	00000002 OSPtrSize
0000f004 g     O .rwdata	00000002 OSEventTblSize
0000a890 g     F .text	0000005c alt_up_irda_disable_read_interrupt
0000c574 g       .text	00000000 OSCtxSw
0000cab8 g     F .text	0000008c alt_icache_flush
00010b30 g     O .bss	00000004 OSTCBList
00010b74 g     O .bss	00000004 alt_fd_list_lock
00014efc g     O .bss	00000c30 OSMemTbl
00010b34 g     O .bss	00000001 OSTickStepState
0000f028 g     O .rwdata	00000002 OSQMax
00015b2c g     O .bss	00000800 OSTaskStatStk
000050ec g     F .text	000000f8 OSMemNameGet
0000f008 g     O .rwdata	00000002 OSFlagEn
0000f04e g     O .rwdata	00000002 OSTimeTickHookEn
000060b0 g     F .text	00000168 OSQPost
00004d68 g     F .text	000000a0 OS_FlagUnlink
0000f078 g     O .rwdata	00000004 alt_max_fd
0000b3a4 g     F .text	00000044 alt_up_rs232_check_parity
00002d24 g     F .text	00000064 OS_MemCopy
00002d88 g     F .text	000000cc OS_Sched
00004ffc g     F .text	000000f0 OSMemGet
0000826c g     F .text	000001c0 OSTaskNameSet
0000ac58 g     F .text	00000030 read_num_bytes_available
00010b38 g     O .bss	00000004 OSCtxSwCtr
0000c818 g     F .text	0000001c OSTimeTickHook
0000bf34 g     F .text	000001b0 alt_irq_register
0000f012 g     O .rwdata	00000002 OSFlagNameSize
0000abc0 g     F .text	00000034 read_RI_bit
00002814 g     F .text	000000fc OS_EventTaskRemoveMulti
00002614 g     F .text	0000014c OS_EventTaskWaitMulti
0000f02a g     O .rwdata	00000002 OSQSize
00006bb4 g     F .text	00000268 OSSemPend
0000f08c g     O .rwdata	00000004 _global_impure_ptr
0000f014 g     O .rwdata	00000002 OSLowestPrio
00017eb0 g       *ABS*	00000000 __bss_end
0000c888 g     F .text	00000020 OSTCBInitHook
0000f05a g     O .rwdata	00000002 OSTmrCfgTicksPerSec
0000c450 g     F .text	00000104 alt_tick
0000effc g     O .rwdata	00000002 OSEventEn
0000f056 g     O .rwdata	00000002 OSTmrCfgNameSize
0c000000 g       *ABS*	00000000 __alt_mem_Flash_flash_data
0000acbc g     F .text	0000002c read_data_byte
00004b74 g     F .text	000000e4 OS_FlagInit
0000c3b8 g     F .text	00000098 alt_alarm_stop
0000abf4 g     F .text	00000030 read_RE_bit
0000f038 g     O .rwdata	00000002 OSTaskIdleStkSize
00010b78 g     O .bss	00000004 alt_irq_active
0000679c g     F .text	000000b0 OSSemAccept
000052fc g     F .text	000000d8 OSMemPut
00004e08 g     F .text	000001f4 OSMemCreate
00010b3c g     O .bss	00000004 OSIdleCtrMax
0000a92c g     F .text	0000003c alt_up_irda_get_available_space_in_write_FIFO
000000fc g     F .exceptions	000000d4 alt_irq_handler
0000ea10 g     O .rwdata	00000028 alt_dev_null
0000f04c g     O .rwdata	00000002 OSTicksPerSec
0000efe8 g     O .rwdata	00000004 character_buffer
0000a804 g     F .text	00000034 alt_up_character_lcd_cursor_blink_on
0000c574 g       .text	00000000 OSIntCtxSw
0000ae60 g     F .text	00000074 alt_up_ps2_write_data_byte
0000bb48 g     F .text	0000001c alt_dcache_flush_all
00010b40 g     O .bss	00000004 OSTCBFreeList
0000f094 g       *ABS*	00000000 __ram_rwdata_end
00006e1c g     F .text	0000016c OSSemPendAbort
0000f070 g     O .rwdata	00000008 alt_dev_list
0000f050 g     O .rwdata	00000002 OSVersionNbr
0000d620 g       *ABS*	00000000 __ram_rodata_end
0000b52c g     F .text	00000094 alt_up_rs232_write_fd
00000000 g       *ABS*	00000000 __alt_mem_SDRAM
0000eff8 g     O .rwdata	00000004 OSEndiannessTest
0000f00a g     O .rwdata	00000002 OSFlagGrpSize
00017eb0 g       *ABS*	00000000 end
0000b19c g     F .text	00000098 alt_up_ps2_write_fd
0000a968 g     F .text	00000044 alt_up_irda_check_parity
0000b600 g     F .text	00000080 alt_up_char_buffer_init
000096a8 g     F .text	00000140 altera_avalon_jtag_uart_init
00002fe8 g     F .text	000000dc OS_TaskStat
000001d0 g     F .exceptions	00000074 alt_instruction_exception_entry
0000d324 g       *ABS*	00000000 __CTOR_LIST__
04000000 g       *ABS*	00000000 __alt_stack_pointer
0000a2e0 g     F .text	00000080 alt_avalon_timer_sc_init
00009fa8 g     F .text	000002c0 altera_avalon_jtag_uart_write
00002cd4 g     F .text	00000050 OS_MemClr
0000a484 g     F .text	00000078 alt_up_character_lcd_write
0000c644 g     F .text	0000015c OSTaskStkInit
00000ad0 g     F .text	00000380 task1
00002370 g     F .text	00000198 OS_EventTaskRdy
0000d154 g     F .text	00000194 __call_exitprocs
00010b44 g     O .bss	00000001 OSCPUUsage
00000244 g     F .text	0000003c _start
00000e50 g     F .text	00000048 task2
00010b7c g     O .bss	00000004 _alt_tick_rate
00005c48 g     F .text	000002fc OSQPend
00008b98 g     F .text	00000148 OSTimeDly
00010b80 g     O .bss	00000004 _alt_nticks
0000916c g     F .text	000003d8 alt_sys_init
0000a6bc g     F .text	00000088 alt_up_character_lcd_shift_display
0000d040 g     F .text	00000114 __register_exitproc
00010b45 g     O .bss	00000001 OSTaskCtr
0000b0bc g     F .text	00000054 alt_up_ps2_clear_fifo
0000b368 g     F .text	0000003c alt_up_rs232_get_available_space_in_write_FIFO
00008ce0 g     F .text	00000168 OSTimeDlyHMSM
0000a744 g     F .text	0000008c alt_up_character_lcd_erase_pos
00009ba0 g     F .text	00000068 altera_avalon_jtag_uart_close
0000d620 g       *ABS*	00000000 __ram_rwdata_start
0000d324 g       *ABS*	00000000 __ram_rodata_start
0000effe g     O .rwdata	00000002 OSEventMax
00006f88 g     F .text	00000110 OSSemPost
00001f28 g     F .text	000000d8 OSSchedUnlock
00009544 g     F .text	00000060 altera_avalon_jtag_uart_read_fd
0000c9bc g     F .text	000000fc alt_get_fd
0000efe0 g     O .rwdata	00000004 buffer_register
00010b48 g     O .bss	00000004 OSMemFreeList
0000206c g     F .text	000000ac OSStatInit
000048ec g     F .text	000000c4 OSFlagQuery
0000f034 g     O .rwdata	00000002 OSTaskCreateExtEn
0000cc2c g     F .text	0000007c memcmp
00002354 g     F .text	0000001c OS_Dummy
00009604 g     F .text	00000050 altera_avalon_jtag_uart_close_fd
00017eb0 g       *ABS*	00000000 __alt_stack_base
00009654 g     F .text	00000054 altera_avalon_jtag_uart_ioctl_fd
0000a838 g     F .text	00000058 alt_up_irda_enable_read_interrupt
0001632c g     O .bss	000001e0 OSQTbl
00010b4c g     O .bss	00000004 OSTCBHighRdy
00010b50 g     O .bss	00000004 OSQFreeList
0000b2cc g     F .text	0000005c alt_up_rs232_disable_read_interrupt
0000c8a8 g     F .text	00000114 alt_find_file
00000280 g     F .text	000000b4 clearscreen
0000bbe0 g     F .text	000000a4 alt_dev_llist_insert
00001280 g     F .text	00000120 __malloc_lock
00001590 g     F .text	0000013c OSEventNameSet
00010b54 g     O .bss	00000001 OSRdyGrp
00010b08 g       *ABS*	00000000 __bss_start
0000cde0 g     F .text	00000124 memset
00000e98 g     F .text	00000114 main
00010b10 g     O .bss	00000004 alt_envp
0000b680 g     F .text	00000040 alt_up_char_buffer_open_dev
000095a4 g     F .text	00000060 altera_avalon_jtag_uart_write_fd
0000d340 g     O .rodata	00000100 OSUnMapTbl
0000f02e g     O .rwdata	00000002 OSSemEn
0000a634 g     F .text	00000088 alt_up_character_lcd_shift_cursor
00004564 g     F .text	00000388 OSFlagPost
00000334 g     F .text	000000cc drawbox
00002508 g     F .text	0000010c OS_EventTaskWait
00012b8c g     O .bss	00002000 task2_stk
0000b04c g     F .text	00000070 alt_up_ps2_read_data_byte
000030c4 g     F .text	000000c8 OS_TaskStatStkChk
00007f6c g     F .text	00000158 OSTaskDelReq
0000f07c g     O .rwdata	00000004 alt_errno
00002000 g     F .text	0000006c OSStart
00001224 g     F .text	0000005c __env_unlock
0000842c g     F .text	000001f8 OSTaskResume
000053d4 g     F .text	000000e8 OSMemQuery
0000f040 g     O .rwdata	00000002 OSTaskStatEn
0000a9ac g     F .text	00000040 alt_up_irda_write_data
0000f01a g     O .rwdata	00000002 OSMemMax
00006218 g     F .text	00000170 OSQPostFront
0000b234 g     F .text	00000040 alt_up_ps2_open_dev
00010b55 g     O .bss	00000003 OSRdyTbl
0000eff4 g     O .rwdata	00000002 OSDebugEn
0000a444 g     F .text	00000040 alt_up_character_lcd_open_dev
0000adac g     F .text	00000058 alt_up_ps2_enable_read_interrupt
0000d324 g       *ABS*	00000000 __CTOR_END__
00000a3c g     F .text	00000094 drawtext
0000f00c g     O .rwdata	00000002 OSFlagNodeSize
0000f054 g     O .rwdata	00000002 OSTmrCfgMax
0000a410 g     F .text	00000034 alt_up_character_lcd_init
0000cf04 g     F .text	000000a4 strcmp
000056cc g     F .text	000001fc OSQCreate
000080c4 g     F .text	000001a8 OSTaskNameGet
0000d324 g       *ABS*	00000000 __flash_rodata_start
00006388 g     F .text	0000020c OSQPostOpt
00002118 g     F .text	0000021c OSTimeTick
0000f03c g     O .rwdata	00000002 OSTaskMax
0000d324 g       *ABS*	00000000 __DTOR_LIST__
0000684c g     F .text	00000100 OSSemCreate
0000f060 g     O .rwdata	00000002 OSTmrWheelSize
0000b5c0 g     F .text	00000040 alt_up_rs232_open_dev
0000f036 g     O .rwdata	00000002 OSTaskDelEn
00007098 g     F .text	00000110 OSSemQuery
000058c8 g     F .text	000002c8 OSQDel
00005f44 g     F .text	0000016c OSQPendAbort
00009138 g     F .text	00000034 alt_irq_init
0000c358 g     F .text	00000060 alt_release_fd
0000ac88 g     F .text	00000034 read_data_valid
0000a7d0 g     F .text	00000034 alt_up_character_lcd_cursor_off
0000af44 g     F .text	00000064 alt_up_ps2_write_data_byte_with_ack
0000cbe0 g     F .text	00000014 atexit
00001ea0 g     F .text	00000088 OSSchedLock
000038f4 g     F .text	00000128 OSFlagCreate
0000f090 g     O .rwdata	00000004 _impure_ptr
00010b08 g     O .bss	00000004 alt_argc
0000bce0 g     F .text	0000005c _do_dtors
0000f006 g     O .rwdata	00000002 OSEventMultiEn
00003a1c g     F .text	00000270 OSFlagDel
00010b58 g     O .bss	00000004 OSEventFreeList
00000020 g       .exceptions	00000000 alt_irq_entry
00003f0c g     F .text	000005f0 OSFlagPend
0000f052 g     O .rwdata	00000002 OSTmrEn
0000f068 g     O .rwdata	00000008 alt_fs_list
00002ec4 g     F .text	00000074 OS_StrCopy
0000b274 g     F .text	00000058 alt_up_rs232_enable_read_interrupt
0000b3e8 g     F .text	00000040 alt_up_rs232_write_data
0000f01c g     O .rwdata	00000002 OSMemNameSize
0000c850 g     F .text	0000001c OSInitHookEnd
00000020 g       *ABS*	00000000 __ram_exceptions_start
0000f048 g     O .rwdata	00000002 OSTCBPrioTblMax
0000f044 g     O .rwdata	00000002 OSTaskStatStkChkEn
0000f018 g     O .rwdata	00000002 OSMemEn
0000f022 g     O .rwdata	00000002 OSMutexEn
0000f094 g       *ABS*	00000000 _edata
00017eb0 g       *ABS*	00000000 _end
00010b5c g     O .bss	00000001 OSIntNesting
00000244 g       *ABS*	00000000 __ram_exceptions_end
00009c08 g     F .text	000000ec altera_avalon_jtag_uart_ioctl
00008e48 g     F .text	000001f0 OSTimeDlyResume
00003dbc g     F .text	00000150 OSFlagNameSet
000009f4 g     F .text	00000048 wait_for_vsync
00008624 g     F .text	000001c8 OSTaskStkChk
0000f01e g     O .rwdata	00000002 OSMemSize
00010b60 g     O .bss	00000004 OSTCBCur
0000cbf4 g     F .text	00000038 exit
0000a9ec g     F .text	00000074 alt_up_irda_read_data
0000f020 g     O .rwdata	00000002 OSMemTblSize
0000ace8 g     F .text	000000c4 alt_up_ps2_init
04000000 g       *ABS*	00000000 __alt_data_end
00000020 g     F .exceptions	00000000 alt_exception
00001cdc g     F .text	00000054 OSInit
00008a00 g     F .text	0000012c OSTaskQuery
0000a4fc g     F .text	00000074 alt_up_character_lcd_string
000066f0 g     F .text	000000ac OS_QInit
00002f38 g     F .text	00000054 OS_StrLen
0000ab80 g     F .text	00000040 alt_up_irda_open_dev
000051e4 g     F .text	00000118 OSMemNameSet
0000f03a g     O .rwdata	00000002 OSTaskProfileEn
00010b64 g     O .bss	00000004 OSTime
0001650c g     O .bss	00000800 OSTaskIdleStk
0000d2e8 g     F .text	0000003c _exit
0000b8e8 g     F .text	00000140 alt_alarm_start
00003c8c g     F .text	00000130 OSFlagNameGet
00009038 g     F .text	00000064 OSTimeGet
0000aed4 g     F .text	00000070 alt_up_ps2_wait_for_ack
0000cfa8 g     F .text	00000098 strlen
0000c7e0 g     F .text	0000001c OSTaskSwHook
0000c200 g     F .text	00000158 open
00016d0c g     O .bss	00000b40 OSEventTbl
0001784c g     O .bss	00000510 OSTCBTbl
000071a8 g     F .text	000000fc OSSemSet
0000bdcc g     F .text	00000030 alt_icache_flush_all
0000a5c0 g     F .text	00000074 alt_up_character_lcd_set_cursor_pos
0000f080 g     O .rwdata	00000004 alt_priority_mask
0000694c g     F .text	00000268 OSSemDel
00010b68 g     O .bss	00000004 OSFlagFreeList
0000f000 g     O .rwdata	00000002 OSEventNameSize
00010b6c g     O .bss	00000001 OSStatRdy
00017d5c g     O .bss	00000054 OSTCBPrioTbl
00001164 g     F .text	000000c0 __env_lock
0000b110 g     F .text	0000008c alt_up_ps2_read_fd
0000f046 g     O .rwdata	00000002 OSTaskSwHookEn
0000aa60 g     F .text	00000090 alt_up_irda_read_fd
0000f084 g     O .rwdata	00000008 alt_alarm_list
0000f00e g     O .rwdata	00000002 OSFlagWidth
0000bc84 g     F .text	0000005c _do_ctors
0000b328 g     F .text	00000040 alt_up_rs232_get_used_space_in_read_FIFO
0000ba78 g     F .text	000000d0 close
0000efe4 g     O .rwdata	00000004 dma_control
00010b18 g     O .bss	00000004 alt_envsem
00010b70 g     O .bss	00000004 OSIdleCtrRun
00002334 g     F .text	00000020 OSVersion
0000f058 g     O .rwdata	00000002 OSTmrCfgWheelSize
00001010 g     F .text	00000080 alt_load
00008b2c g     F .text	0000006c OS_TaskStkClr
0000f032 g     O .rwdata	00000002 OSTaskCreateEn
00002910 g     F .text	00000064 OS_EventWaitListInit
0000c86c g     F .text	0000001c OSTaskIdleHook
00000000  w      *UND*	00000000 free
000087ec g     F .text	00000214 OSTaskSuspend
00002f8c g     F .text	0000005c OS_TaskIdle
0000f05e g     O .rwdata	00000002 OSTmrTblSize
00006594 g     F .text	0000015c OSQQuery



Disassembly of section .entry:

00000000 <__reset>:
#if NIOS2_ICACHE_SIZE > 0 && defined(ALT_ALLOW_CODE_AT_RESET) && (!defined(ALT_SIM_OPTIMIZE) || defined(NIOS2_ECC_PRESENT))
    /* Assume the instruction cache size is always a power of two. */
#if NIOS2_ICACHE_SIZE > 0x8000
    movhi r2, %hi(NIOS2_ICACHE_SIZE)
#else
    movui r2, NIOS2_ICACHE_SIZE
   0:	00840014 	movui	r2,4096
#endif

0:
    initi r2
   4:	1001483a 	initi	r2
    addi r2, r2, -NIOS2_ICACHE_LINE_SIZE
   8:	10bff804 	addi	r2,r2,-32
    bgt r2, zero, 0b
   c:	00bffd16 	blt	zero,r2,4 <__reset+0x4>
 * Jump to the _start entry point in the .text section if reset code
 * is allowed or if optimizing for RTL simulation.
 */
#if defined(ALT_ALLOW_CODE_AT_RESET) || defined(ALT_SIM_OPTIMIZE)
    /* Jump to the _start entry point in the .text section. */
    movhi r1, %hi(_start)
  10:	00400034 	movhi	at,0
    ori r1, r1, %lo(_start)
  14:	08409114 	ori	at,at,580
    jmp r1
  18:	0800683a 	jmp	at
  1c:	00000000 	call	0 <__reset>

Disassembly of section .exceptions:

00000020 <alt_exception>:

#else /* ALT_EXCEPTION_STACK disabled */
        /* 
         * Reserve space on normal stack for registers about to be pushed.
         */
        addi  sp, sp, -76
  20:	deffed04 	addi	sp,sp,-76
         * documentation for details).
         *
         * Leave a gap in the stack frame at 4(sp) for the muldiv handler to
         * store zero into.
         */
        stw   ra,  0(sp)
  24:	dfc00015 	stw	ra,0(sp)
        stw   r1,   8(sp)
  28:	d8400215 	stw	at,8(sp)
        stw   r2,  12(sp)
  2c:	d8800315 	stw	r2,12(sp)
        stw   r3,  16(sp)
  30:	d8c00415 	stw	r3,16(sp)
        stw   r4,  20(sp)
  34:	d9000515 	stw	r4,20(sp)
        stw   r5,  24(sp)
  38:	d9400615 	stw	r5,24(sp)
        stw   r6,  28(sp)
  3c:	d9800715 	stw	r6,28(sp)
        stw   r7,  32(sp)
  40:	d9c00815 	stw	r7,32(sp)
        rdctl r5, estatus   /* Read early to avoid usage stall */
  44:	000b307a 	rdctl	r5,estatus
        stw   r8,  36(sp)
  48:	da000915 	stw	r8,36(sp)
        stw   r9,  40(sp)
  4c:	da400a15 	stw	r9,40(sp)
        stw   r10, 44(sp)
  50:	da800b15 	stw	r10,44(sp)
        stw   r11, 48(sp)
  54:	dac00c15 	stw	r11,48(sp)
        stw   r12, 52(sp)
  58:	db000d15 	stw	r12,52(sp)
        stw   r13, 56(sp)
  5c:	db400e15 	stw	r13,56(sp)
        stw   r14, 60(sp)
  60:	db800f15 	stw	r14,60(sp)
        stw   r15, 64(sp)
  64:	dbc01015 	stw	r15,64(sp)
        /*
         * ea-4 contains the address of the instruction being executed
         * when the exception occured. For interrupt exceptions, we will
         * will be re-issue the isntruction. Store it in 72(sp)
         */
        stw   r5,  68(sp)  /* estatus */
  68:	d9401115 	stw	r5,68(sp)
        addi  r15, ea, -4  /* instruction that caused exception */
  6c:	ebffff04 	addi	r15,ea,-4
        stw   r15,  72(sp)
  70:	dbc01215 	stw	r15,72(sp)
#else
        /*
         * Test to see if the exception was a software exception or caused 
         * by an external interrupt, and vector accordingly.
         */
        rdctl r4, ipending
  74:	0009313a 	rdctl	r4,ipending
        andi  r2, r5, 1
  78:	2880004c 	andi	r2,r5,1
        beq   r2, zero, .Lnot_irq
  7c:	10000326 	beq	r2,zero,8c <OSCtxSw_SWITCH_PC+0x4c>
        beq   r4, zero, .Lnot_irq
  80:	20000226 	beq	r4,zero,8c <OSCtxSw_SWITCH_PC+0x4c>
        /*
         * Now that all necessary registers have been preserved, call 
         * alt_irq_handler() to process the interrupts.
         */

        call alt_irq_handler
  84:	00000fc0 	call	fc <alt_irq_handler>

        .section .exceptions.irqreturn, "xa"

        br    .Lexception_exit
  88:	00000706 	br	a8 <OSCtxSw_SWITCH_PC+0x68>
         * upon completion, so we write ea (address of instruction *after*
         * the one where the exception occured) into 72(sp). The actual
         * instruction that caused the exception is written in r2, which these
         * handlers will utilize.
         */
        stw   ea,  72(sp)  /* Don't re-issue */
  8c:	df401215 	stw	ea,72(sp)
        ldhu.n  r2, 0(r4)
        ldhu.n  r3, 2(r4)
        slli.n  r3, r3, 16
        or.n    r2, r2, r3 /* Instruction that caused exception */
#else
        ldw   r2, -4(ea)   /* Instruction that caused exception */
  90:	e8bfff17 	ldw	r2,-4(ea)
         * debugger is present) or go into an infinite loop since the
         * handling behavior is undefined; in that case we will not return here.
         */

        /* Load exception-causing address as first argument (r4) */
        addi   r4, ea, -4
  94:	e93fff04 	addi	r4,ea,-4

        /* Call the instruction-exception entry */
        call   alt_instruction_exception_entry
  98:	00001d00 	call	1d0 <alt_instruction_exception_entry>
         * instruction
         *
         * Return code was 0: Skip. The instruction after the exception is
         * already stored in 72(sp).
         */
        bne   r2, r0, .Lexception_exit
  9c:	1000021e 	bne	r2,zero,a8 <OSCtxSw_SWITCH_PC+0x68>

        /*
         * Otherwise, modify 72(sp) to re-issue the instruction that caused the
         * exception.
         */
        addi  r15, ea, -4  /* instruction that caused exception */
  a0:	ebffff04 	addi	r15,ea,-4
        stw   r15,  72(sp)
  a4:	dbc01215 	stw	r15,72(sp)
        /* 
         * Restore the saved registers, so that all general purpose registers 
         * have been restored to their state at the time the interrupt occured.
         */

        ldw   r5,  68(sp)
  a8:	d9401117 	ldw	r5,68(sp)
        ldw   ea,  72(sp)  /* This becomes the PC once eret is executed */
  ac:	df401217 	ldw	ea,72(sp)
        ldw   ra,   0(sp)
  b0:	dfc00017 	ldw	ra,0(sp)

        wrctl estatus, r5
  b4:	2801707a 	wrctl	estatus,r5

        ldw   r1,   8(sp)
  b8:	d8400217 	ldw	at,8(sp)
        ldw   r2,  12(sp)
  bc:	d8800317 	ldw	r2,12(sp)
        ldw   r3,  16(sp)
  c0:	d8c00417 	ldw	r3,16(sp)
        ldw   r4,  20(sp)
  c4:	d9000517 	ldw	r4,20(sp)
        ldw   r5,  24(sp)
  c8:	d9400617 	ldw	r5,24(sp)
        ldw   r6,  28(sp)
  cc:	d9800717 	ldw	r6,28(sp)
        ldw   r7,  32(sp)
  d0:	d9c00817 	ldw	r7,32(sp)

#if defined(ALT_EXCEPTION_STACK) && defined(ALT_STACK_CHECK)
        ldw   et, %gprel(alt_exception_old_stack_limit)(gp)
#endif

        ldw   r8,  36(sp)
  d4:	da000917 	ldw	r8,36(sp)
        ldw   r9,  40(sp)
  d8:	da400a17 	ldw	r9,40(sp)
        ldw   r10, 44(sp)
  dc:	da800b17 	ldw	r10,44(sp)
        ldw   r11, 48(sp)
  e0:	dac00c17 	ldw	r11,48(sp)
        ldw   r12, 52(sp)
  e4:	db000d17 	ldw	r12,52(sp)
        ldw   r13, 56(sp)
  e8:	db400e17 	ldw	r13,56(sp)
        ldw   r14, 60(sp)
  ec:	db800f17 	ldw	r14,60(sp)
        ldw   r15, 64(sp)
  f0:	dbc01017 	ldw	r15,64(sp)
        stw   et, %gprel(alt_stack_limit_value)(gp)
        stw   zero, %gprel(alt_exception_old_stack_limit)(gp)
#endif /* ALT_STACK_CHECK */
        ldw   sp,  76(sp)
#else /* ALT_EXCEPTION_STACK disabled */
        addi  sp, sp, 76
  f4:	dec01304 	addi	sp,sp,76

        /*
         * Return to the interrupted instruction.
         */

        eret
  f8:	ef80083a 	eret

000000fc <alt_irq_handler>:
 * instruction is present if the macro ALT_CI_INTERRUPT_VECTOR defined.
 */

void alt_irq_handler (void) __attribute__ ((section (".exceptions")));
void alt_irq_handler (void)
{
  fc:	defff904 	addi	sp,sp,-28
 100:	dfc00615 	stw	ra,24(sp)
 104:	df000515 	stw	fp,20(sp)
 108:	df000504 	addi	fp,sp,20
  
  /*
   * Notify the operating system that we are at interrupt level.
   */ 
  
  ALT_OS_INT_ENTER();
 10c:	0001d300 	call	1d30 <OSIntEnter>
#ifndef NIOS2_EIC_PRESENT
static ALT_INLINE alt_u32 ALT_ALWAYS_INLINE alt_irq_pending (void)
{
  alt_u32 active;

  NIOS2_READ_IPENDING (active);
 110:	0005313a 	rdctl	r2,ipending
 114:	e0bffe15 	stw	r2,-8(fp)

  return active;
 118:	e0bffe17 	ldw	r2,-8(fp)
   * Consider the case where the high priority interupt is asserted during
   * the interrupt entry sequence for a lower priority interrupt to see why
   * this is the case.
   */

  active = alt_irq_pending ();
 11c:	e0bffb15 	stw	r2,-20(fp)

  do
  {
    i = 0;
 120:	e03ffd15 	stw	zero,-12(fp)
    mask = 1;
 124:	00800044 	movi	r2,1
 128:	e0bffc15 	stw	r2,-16(fp)
     * called to clear the interrupt condition.
     */

    do
    {
      if (active & mask)
 12c:	e0fffb17 	ldw	r3,-20(fp)
 130:	e0bffc17 	ldw	r2,-16(fp)
 134:	1884703a 	and	r2,r3,r2
 138:	10001526 	beq	r2,zero,190 <alt_irq_handler+0x94>
      { 
#ifdef ALT_ENHANCED_INTERRUPT_API_PRESENT
        alt_irq[i].handler(alt_irq[i].context); 
#else
        alt_irq[i].handler(alt_irq[i].context, i); 
 13c:	00800074 	movhi	r2,1
 140:	109f6c04 	addi	r2,r2,32176
 144:	e0fffd17 	ldw	r3,-12(fp)
 148:	180690fa 	slli	r3,r3,3
 14c:	10c5883a 	add	r2,r2,r3
 150:	10c00017 	ldw	r3,0(r2)
 154:	00800074 	movhi	r2,1
 158:	109f6c04 	addi	r2,r2,32176
 15c:	e13ffd17 	ldw	r4,-12(fp)
 160:	200890fa 	slli	r4,r4,3
 164:	21000104 	addi	r4,r4,4
 168:	1105883a 	add	r2,r2,r4
 16c:	10800017 	ldw	r2,0(r2)
 170:	1009883a 	mov	r4,r2
 174:	e17ffd17 	ldw	r5,-12(fp)
 178:	183ee83a 	callr	r3
#endif
        break;
 17c:	0001883a 	nop
#ifndef NIOS2_EIC_PRESENT
static ALT_INLINE alt_u32 ALT_ALWAYS_INLINE alt_irq_pending (void)
{
  alt_u32 active;

  NIOS2_READ_IPENDING (active);
 180:	0005313a 	rdctl	r2,ipending
 184:	e0bfff15 	stw	r2,-4(fp)

  return active;
 188:	e0bfff17 	ldw	r2,-4(fp)
 18c:	00000706 	br	1ac <alt_irq_handler+0xb0>
      }
      mask <<= 1;
 190:	e0bffc17 	ldw	r2,-16(fp)
 194:	1085883a 	add	r2,r2,r2
 198:	e0bffc15 	stw	r2,-16(fp)
      i++;
 19c:	e0bffd17 	ldw	r2,-12(fp)
 1a0:	10800044 	addi	r2,r2,1
 1a4:	e0bffd15 	stw	r2,-12(fp)

    } while (1);
 1a8:	003fe006 	br	12c <alt_irq_handler+0x30>

    active = alt_irq_pending ();
 1ac:	e0bffb15 	stw	r2,-20(fp)
    
  } while (active);
 1b0:	e0bffb17 	ldw	r2,-20(fp)
 1b4:	103fda1e 	bne	r2,zero,120 <alt_irq_handler+0x24>

  /*
   * Notify the operating system that interrupt processing is complete.
   */ 

  ALT_OS_INT_EXIT();
 1b8:	0001dac0 	call	1dac <OSIntExit>
}
 1bc:	e037883a 	mov	sp,fp
 1c0:	dfc00117 	ldw	ra,4(sp)
 1c4:	df000017 	ldw	fp,0(sp)
 1c8:	dec00204 	addi	sp,sp,8
 1cc:	f800283a 	ret

000001d0 <alt_instruction_exception_entry>:
 * that handler if it has been registered. Absent a handler, it will
 * break break or hang as discussed below.
 */
int 
alt_instruction_exception_entry (alt_u32 exception_pc)
{
 1d0:	defffb04 	addi	sp,sp,-20
 1d4:	dfc00415 	stw	ra,16(sp)
 1d8:	df000315 	stw	fp,12(sp)
 1dc:	df000304 	addi	fp,sp,12
 1e0:	e13fff15 	stw	r4,-4(fp)
 * NIOS2_EXCEPTION_CAUSE_NOT_PRESENT. Your handling routine should
 * check the validity of the cause argument before proceeding.
 */
#ifdef NIOS2_HAS_EXTRA_EXCEPTION_INFO
  /* Get exception cause & "badaddr" */
  NIOS2_READ_EXCEPTION(cause);
 1e4:	000531fa 	rdctl	r2,exception
 1e8:	e0bffd15 	stw	r2,-12(fp)
  cause = ( (cause & NIOS2_EXCEPTION_REG_CAUSE_MASK) >>
 1ec:	e0bffd17 	ldw	r2,-12(fp)
 1f0:	10801f0c 	andi	r2,r2,124
 1f4:	1004d0ba 	srli	r2,r2,2
 1f8:	e0bffd15 	stw	r2,-12(fp)
              NIOS2_EXCEPTION_REG_CAUSE_OFST );

  NIOS2_READ_BADADDR(badaddr);
 1fc:	0005333a 	rdctl	r2,badaddr
 200:	e0bffe15 	stw	r2,-8(fp)
#else
  cause = NIOS2_EXCEPTION_CAUSE_NOT_PRESENT;
  badaddr = 0;
#endif /* NIOS2_HAS_EXTRA_EXCEPTION_INFO */

  if(alt_instruction_exception_handler) {
 204:	d0a6ea17 	ldw	r2,-25688(gp)
 208:	10000726 	beq	r2,zero,228 <alt_instruction_exception_entry+0x58>
     * Call handler. Its return value indicates whether the exception-causing
     * instruction should be re-issued. The code that called us,
     * alt_eceptions_entry.S, will look at this value and adjust the ea
     * register as necessary
     */
    return alt_instruction_exception_handler(cause, exception_pc, badaddr);
 20c:	d0a6ea17 	ldw	r2,-25688(gp)
 210:	e0fffd17 	ldw	r3,-12(fp)
 214:	1809883a 	mov	r4,r3
 218:	e17fff17 	ldw	r5,-4(fp)
 21c:	e1bffe17 	ldw	r6,-8(fp)
 220:	103ee83a 	callr	r2
 224:	00000206 	br	230 <alt_instruction_exception_entry+0x60>
   *    (a peripheral which negates its interrupt output before its
   *    interrupt handler has been executed will cause spurious interrupts)
   */
  else {
#ifdef NIOS2_HAS_DEBUG_STUB
    NIOS2_BREAK();
 228:	003da03a 	break	0
      ;
#endif /* NIOS2_HAS_DEBUG_STUB */
  }

  /* We should not get here. Remove compiler warning. */
  return NIOS2_EXCEPTION_RETURN_REISSUE_INST;
 22c:	0005883a 	mov	r2,zero
}
 230:	e037883a 	mov	sp,fp
 234:	dfc00117 	ldw	ra,4(sp)
 238:	df000017 	ldw	fp,0(sp)
 23c:	dec00204 	addi	sp,sp,8
 240:	f800283a 	ret

Disassembly of section .text:

00000244 <_start>:

    /*
     * Now that the caches are initialized, set up the stack pointer and global pointer.
     * The values provided by the linker are assumed to be correctly aligned.
     */
    movhi sp, %hi(__alt_stack_pointer)
     244:	06c10034 	movhi	sp,1024
    ori sp, sp, %lo(__alt_stack_pointer)
     248:	dec00014 	ori	sp,sp,0
    movhi gp, %hi(_gp)
     24c:	06800074 	movhi	gp,1
    ori gp, gp, %lo(_gp)
     250:	d69bf714 	ori	gp,gp,28636
 */
#ifndef ALT_SIM_OPTIMIZE
    /* Log that the BSS is about to be cleared. */
    ALT_LOG_PUTS(alt_log_msg_bss)

    movhi r2, %hi(__bss_start)
     254:	00800074 	movhi	r2,1
    ori r2, r2, %lo(__bss_start)
     258:	1082c214 	ori	r2,r2,2824

    movhi r3, %hi(__bss_end)
     25c:	00c00074 	movhi	r3,1
    ori r3, r3, %lo(__bss_end)
     260:	18dfac14 	ori	r3,r3,32432

    beq r2, r3, 1f
     264:	10c00326 	beq	r2,r3,274 <_start+0x30>

0:
    stw zero, (r2)
     268:	10000015 	stw	zero,0(r2)
    addi r2, r2, 4
     26c:	10800104 	addi	r2,r2,4
    bltu r2, r3, 0b
     270:	10fffd36 	bltu	r2,r3,268 <_start+0x24>
     * section aren't defined until alt_load() has been called).
     */
    mov   et, zero
#endif

    call alt_load
     274:	00010100 	call	1010 <alt_load>

    /* Log that alt_main is about to be called. */
    ALT_LOG_PUTS(alt_log_msg_alt_main)

    /* Call the C entry point. It should never return. */
    call alt_main
     278:	00010900 	call	1090 <alt_main>

0000027c <alt_after_alt_main>:

    /* Wait in infinite loop in case alt_main does return. */
alt_after_alt_main:
    br alt_after_alt_main
     27c:	003fff06 	br	27c <alt_after_alt_main>

00000280 <clearscreen>:
#include "graphicslib.h"

void clearscreen(volatile short * pixel_ctrl_ptr)
{
     280:	defffd04 	addi	sp,sp,-12
     284:	df000215 	stw	fp,8(sp)
     288:	df000204 	addi	fp,sp,8
     28c:	e13fff15 	stw	r4,-4(fp)
	alt_u8 row,col;
	for(row = 0;row<=240;row++){
     290:	e03ffe05 	stb	zero,-8(fp)
     294:	00002006 	br	318 <clearscreen+0x98>
		for(col=0;col <= 160;col++)
     298:	e03ffe45 	stb	zero,-7(fp)
     29c:	00001806 	br	300 <clearscreen+0x80>
		{
			*(pixel_ctrl_ptr + (row << 9) + col) = 0;
     2a0:	e0bffe03 	ldbu	r2,-8(fp)
     2a4:	1004927a 	slli	r2,r2,9
     2a8:	1007883a 	mov	r3,r2
     2ac:	e0bffe43 	ldbu	r2,-7(fp)
     2b0:	1885883a 	add	r2,r3,r2
     2b4:	1085883a 	add	r2,r2,r2
     2b8:	1007883a 	mov	r3,r2
     2bc:	e0bfff17 	ldw	r2,-4(fp)
     2c0:	10c5883a 	add	r2,r2,r3
     2c4:	1000000d 	sth	zero,0(r2)
			*(pixel_ctrl_ptr + (row << 9) + col+160) = 0;
     2c8:	e0bffe03 	ldbu	r2,-8(fp)
     2cc:	1004927a 	slli	r2,r2,9
     2d0:	1007883a 	mov	r3,r2
     2d4:	e0bffe43 	ldbu	r2,-7(fp)
     2d8:	1885883a 	add	r2,r3,r2
     2dc:	10802804 	addi	r2,r2,160
     2e0:	1085883a 	add	r2,r2,r2
     2e4:	1007883a 	mov	r3,r2
     2e8:	e0bfff17 	ldw	r2,-4(fp)
     2ec:	10c5883a 	add	r2,r2,r3
     2f0:	1000000d 	sth	zero,0(r2)

void clearscreen(volatile short * pixel_ctrl_ptr)
{
	alt_u8 row,col;
	for(row = 0;row<=240;row++){
		for(col=0;col <= 160;col++)
     2f4:	e0bffe43 	ldbu	r2,-7(fp)
     2f8:	10800044 	addi	r2,r2,1
     2fc:	e0bffe45 	stb	r2,-7(fp)
     300:	e0bffe43 	ldbu	r2,-7(fp)
     304:	10802870 	cmpltui	r2,r2,161
     308:	103fe51e 	bne	r2,zero,2a0 <clearscreen+0x20>
#include "graphicslib.h"

void clearscreen(volatile short * pixel_ctrl_ptr)
{
	alt_u8 row,col;
	for(row = 0;row<=240;row++){
     30c:	e0bffe03 	ldbu	r2,-8(fp)
     310:	10800044 	addi	r2,r2,1
     314:	e0bffe05 	stb	r2,-8(fp)
     318:	e0bffe03 	ldbu	r2,-8(fp)
     31c:	10803c70 	cmpltui	r2,r2,241
     320:	103fdd1e 	bne	r2,zero,298 <clearscreen+0x18>
		{
			*(pixel_ctrl_ptr + (row << 9) + col) = 0;
			*(pixel_ctrl_ptr + (row << 9) + col+160) = 0;
		}
	}
}
     324:	e037883a 	mov	sp,fp
     328:	df000017 	ldw	fp,0(sp)
     32c:	dec00104 	addi	sp,sp,4
     330:	f800283a 	ret

00000334 <drawbox>:
void drawbox(volatile short * pixel_ctrl_ptr, alt_u16 x0,alt_u16 y0,alt_u8 sizex,alt_u8 sizey,alt_u16 color)
{
     334:	defff804 	addi	sp,sp,-32
     338:	df000715 	stw	fp,28(sp)
     33c:	df000704 	addi	fp,sp,28
     340:	e13ffa15 	stw	r4,-24(fp)
     344:	2811883a 	mov	r8,r5
     348:	300b883a 	mov	r5,r6
     34c:	3809883a 	mov	r4,r7
     350:	e0c00117 	ldw	r3,4(fp)
     354:	e0800217 	ldw	r2,8(fp)
     358:	e23ffb0d 	sth	r8,-20(fp)
     35c:	e17ffc0d 	sth	r5,-16(fp)
     360:	e13ffd05 	stb	r4,-12(fp)
     364:	e0fffe05 	stb	r3,-8(fp)
     368:	e0bfff0d 	sth	r2,-4(fp)
	alt_u8 row;
	alt_u16 col;
	for(row = y0;row<=y0+sizey;row++){
     36c:	e0bffc0b 	ldhu	r2,-16(fp)
     370:	e0bff905 	stb	r2,-28(fp)
     374:	00001906 	br	3dc <drawbox+0xa8>
		for(col=x0;col <= x0+sizex;col++)
     378:	e0bffb0b 	ldhu	r2,-20(fp)
     37c:	e0bff98d 	sth	r2,-26(fp)
     380:	00000e06 	br	3bc <drawbox+0x88>
		{
			*(pixel_ctrl_ptr + (row << 9) + col) = color;
     384:	e0bff903 	ldbu	r2,-28(fp)
     388:	1004927a 	slli	r2,r2,9
     38c:	1007883a 	mov	r3,r2
     390:	e0bff98b 	ldhu	r2,-26(fp)
     394:	1885883a 	add	r2,r3,r2
     398:	1085883a 	add	r2,r2,r2
     39c:	1007883a 	mov	r3,r2
     3a0:	e0bffa17 	ldw	r2,-24(fp)
     3a4:	10c5883a 	add	r2,r2,r3
     3a8:	e0ffff0b 	ldhu	r3,-4(fp)
     3ac:	10c0000d 	sth	r3,0(r2)
void drawbox(volatile short * pixel_ctrl_ptr, alt_u16 x0,alt_u16 y0,alt_u8 sizex,alt_u8 sizey,alt_u16 color)
{
	alt_u8 row;
	alt_u16 col;
	for(row = y0;row<=y0+sizey;row++){
		for(col=x0;col <= x0+sizex;col++)
     3b0:	e0bff98b 	ldhu	r2,-26(fp)
     3b4:	10800044 	addi	r2,r2,1
     3b8:	e0bff98d 	sth	r2,-26(fp)
     3bc:	e0bff98b 	ldhu	r2,-26(fp)
     3c0:	e13ffb0b 	ldhu	r4,-20(fp)
     3c4:	e0fffd03 	ldbu	r3,-12(fp)
     3c8:	20c7883a 	add	r3,r4,r3
     3cc:	18bfed0e 	bge	r3,r2,384 <drawbox+0x50>
}
void drawbox(volatile short * pixel_ctrl_ptr, alt_u16 x0,alt_u16 y0,alt_u8 sizex,alt_u8 sizey,alt_u16 color)
{
	alt_u8 row;
	alt_u16 col;
	for(row = y0;row<=y0+sizey;row++){
     3d0:	e0bff903 	ldbu	r2,-28(fp)
     3d4:	10800044 	addi	r2,r2,1
     3d8:	e0bff905 	stb	r2,-28(fp)
     3dc:	e0bff903 	ldbu	r2,-28(fp)
     3e0:	e13ffc0b 	ldhu	r4,-16(fp)
     3e4:	e0fffe03 	ldbu	r3,-8(fp)
     3e8:	20c7883a 	add	r3,r4,r3
     3ec:	18bfe20e 	bge	r3,r2,378 <drawbox+0x44>
		for(col=x0;col <= x0+sizex;col++)
		{
			*(pixel_ctrl_ptr + (row << 9) + col) = color;
		}
	}
}
     3f0:	e037883a 	mov	sp,fp
     3f4:	df000017 	ldw	fp,0(sp)
     3f8:	dec00104 	addi	sp,sp,4
     3fc:	f800283a 	ret

00000400 <drawrectangle>:
void drawrectangle(volatile short * pixel_ctrl_ptr, alt_u16 x0,alt_u16 y0,alt_u8 sizex,alt_u8 sizey,alt_u16 color)
{
     400:	defff604 	addi	sp,sp,-40
     404:	dfc00915 	stw	ra,36(sp)
     408:	df000815 	stw	fp,32(sp)
     40c:	df000804 	addi	fp,sp,32
     410:	e13ffa15 	stw	r4,-24(fp)
     414:	2811883a 	mov	r8,r5
     418:	300b883a 	mov	r5,r6
     41c:	3809883a 	mov	r4,r7
     420:	e0c00217 	ldw	r3,8(fp)
     424:	e0800317 	ldw	r2,12(fp)
     428:	e23ffb0d 	sth	r8,-20(fp)
     42c:	e17ffc0d 	sth	r5,-16(fp)
     430:	e13ffd05 	stb	r4,-12(fp)
     434:	e0fffe05 	stb	r3,-8(fp)
     438:	e0bfff0d 	sth	r2,-4(fp)
	drawline(pixel_ctrl_ptr,x0,y0,x0+sizex,y0,color);
     43c:	e17ffb0b 	ldhu	r5,-20(fp)
     440:	e1bffc0b 	ldhu	r6,-16(fp)
     444:	e0fffd03 	ldbu	r3,-12(fp)
     448:	e0bffb0b 	ldhu	r2,-20(fp)
     44c:	1885883a 	add	r2,r3,r2
     450:	11ffffcc 	andi	r7,r2,65535
     454:	e0fffc0b 	ldhu	r3,-16(fp)
     458:	e0bfff0b 	ldhu	r2,-4(fp)
     45c:	d8c00015 	stw	r3,0(sp)
     460:	d8800115 	stw	r2,4(sp)
     464:	e13ffa17 	ldw	r4,-24(fp)
     468:	00005440 	call	544 <drawline>
	drawline(pixel_ctrl_ptr,x0,y0,x0,y0+sizey,color);
     46c:	e17ffb0b 	ldhu	r5,-20(fp)
     470:	e1bffc0b 	ldhu	r6,-16(fp)
     474:	e1fffb0b 	ldhu	r7,-20(fp)
     478:	e0fffe03 	ldbu	r3,-8(fp)
     47c:	e0bffc0b 	ldhu	r2,-16(fp)
     480:	1885883a 	add	r2,r3,r2
     484:	10ffffcc 	andi	r3,r2,65535
     488:	e0bfff0b 	ldhu	r2,-4(fp)
     48c:	d8c00015 	stw	r3,0(sp)
     490:	d8800115 	stw	r2,4(sp)
     494:	e13ffa17 	ldw	r4,-24(fp)
     498:	00005440 	call	544 <drawline>
	drawline(pixel_ctrl_ptr,x0,y0+sizey,x0+sizex+1,y0+sizey,color);
     49c:	e17ffb0b 	ldhu	r5,-20(fp)
     4a0:	e0fffe03 	ldbu	r3,-8(fp)
     4a4:	e0bffc0b 	ldhu	r2,-16(fp)
     4a8:	1885883a 	add	r2,r3,r2
     4ac:	11bfffcc 	andi	r6,r2,65535
     4b0:	e0fffd03 	ldbu	r3,-12(fp)
     4b4:	e0bffb0b 	ldhu	r2,-20(fp)
     4b8:	1885883a 	add	r2,r3,r2
     4bc:	10800044 	addi	r2,r2,1
     4c0:	11ffffcc 	andi	r7,r2,65535
     4c4:	e0fffe03 	ldbu	r3,-8(fp)
     4c8:	e0bffc0b 	ldhu	r2,-16(fp)
     4cc:	1885883a 	add	r2,r3,r2
     4d0:	10ffffcc 	andi	r3,r2,65535
     4d4:	e0bfff0b 	ldhu	r2,-4(fp)
     4d8:	d8c00015 	stw	r3,0(sp)
     4dc:	d8800115 	stw	r2,4(sp)
     4e0:	e13ffa17 	ldw	r4,-24(fp)
     4e4:	00005440 	call	544 <drawline>
	drawline(pixel_ctrl_ptr,x0+sizex,y0,x0+sizex,y0+sizey,color);
     4e8:	e0fffd03 	ldbu	r3,-12(fp)
     4ec:	e0bffb0b 	ldhu	r2,-20(fp)
     4f0:	1885883a 	add	r2,r3,r2
     4f4:	117fffcc 	andi	r5,r2,65535
     4f8:	e1bffc0b 	ldhu	r6,-16(fp)
     4fc:	e0fffd03 	ldbu	r3,-12(fp)
     500:	e0bffb0b 	ldhu	r2,-20(fp)
     504:	1885883a 	add	r2,r3,r2
     508:	11ffffcc 	andi	r7,r2,65535
     50c:	e0fffe03 	ldbu	r3,-8(fp)
     510:	e0bffc0b 	ldhu	r2,-16(fp)
     514:	1885883a 	add	r2,r3,r2
     518:	10ffffcc 	andi	r3,r2,65535
     51c:	e0bfff0b 	ldhu	r2,-4(fp)
     520:	d8c00015 	stw	r3,0(sp)
     524:	d8800115 	stw	r2,4(sp)
     528:	e13ffa17 	ldw	r4,-24(fp)
     52c:	00005440 	call	544 <drawline>
}
     530:	e037883a 	mov	sp,fp
     534:	dfc00117 	ldw	ra,4(sp)
     538:	df000017 	ldw	fp,0(sp)
     53c:	dec00204 	addi	sp,sp,8
     540:	f800283a 	ret

00000544 <drawline>:
void drawline(volatile short * pixel_ctrl_ptr, alt_u16 x0, alt_u16 y0,alt_u16 x1,alt_u16 y1,alt_u16 color)
{
     544:	defff504 	addi	sp,sp,-44
     548:	df000a15 	stw	fp,40(sp)
     54c:	df000a04 	addi	fp,sp,40
     550:	e13ffa15 	stw	r4,-24(fp)
     554:	2811883a 	mov	r8,r5
     558:	300b883a 	mov	r5,r6
     55c:	3809883a 	mov	r4,r7
     560:	e0c00117 	ldw	r3,4(fp)
     564:	e0800217 	ldw	r2,8(fp)
     568:	e23ffb0d 	sth	r8,-20(fp)
     56c:	e17ffc0d 	sth	r5,-16(fp)
     570:	e13ffd0d 	sth	r4,-12(fp)
     574:	e0fffe0d 	sth	r3,-8(fp)
     578:	e0bfff0d 	sth	r2,-4(fp)
	alt_u8 is_steep = abs(y1-y0) > abs(x1 -x0);
     57c:	e0fffe0b 	ldhu	r3,-8(fp)
     580:	e0bffc0b 	ldhu	r2,-16(fp)
     584:	1885c83a 	sub	r2,r3,r2
     588:	1000010e 	bge	r2,zero,590 <drawline+0x4c>
     58c:	0085c83a 	sub	r2,zero,r2
     590:	1009883a 	mov	r4,r2
     594:	e0fffd0b 	ldhu	r3,-12(fp)
     598:	e0bffb0b 	ldhu	r2,-20(fp)
     59c:	1885c83a 	sub	r2,r3,r2
     5a0:	1000010e 	bge	r2,zero,5a8 <drawline+0x64>
     5a4:	0085c83a 	sub	r2,zero,r2
     5a8:	1104803a 	cmplt	r2,r2,r4
     5ac:	e0bff7c5 	stb	r2,-33(fp)
	alt_u16 temp;
	if (is_steep)
     5b0:	e0bff7c3 	ldbu	r2,-33(fp)
     5b4:	10000c26 	beq	r2,zero,5e8 <drawline+0xa4>
	{
		temp = x0;
     5b8:	e0bffb0b 	ldhu	r2,-20(fp)
     5bc:	e0bff80d 	sth	r2,-32(fp)
		x0 = y0;
     5c0:	e0bffc0b 	ldhu	r2,-16(fp)
     5c4:	e0bffb0d 	sth	r2,-20(fp)
		y0 = temp;
     5c8:	e0bff80b 	ldhu	r2,-32(fp)
     5cc:	e0bffc0d 	sth	r2,-16(fp)

		temp = x1;
     5d0:	e0bffd0b 	ldhu	r2,-12(fp)
     5d4:	e0bff80d 	sth	r2,-32(fp)
		x1 = y1;
     5d8:	e0bffe0b 	ldhu	r2,-8(fp)
     5dc:	e0bffd0d 	sth	r2,-12(fp)
		y1 = temp;
     5e0:	e0bff80b 	ldhu	r2,-32(fp)
     5e4:	e0bffe0d 	sth	r2,-8(fp)
	}
	if(x0 > x1)
     5e8:	e0bffb0b 	ldhu	r2,-20(fp)
     5ec:	e0fffd0b 	ldhu	r3,-12(fp)
     5f0:	18800c2e 	bgeu	r3,r2,624 <drawline+0xe0>
	{
		temp = x0;
     5f4:	e0bffb0b 	ldhu	r2,-20(fp)
     5f8:	e0bff80d 	sth	r2,-32(fp)
		x0 = x1;
     5fc:	e0bffd0b 	ldhu	r2,-12(fp)
     600:	e0bffb0d 	sth	r2,-20(fp)
		x1 = temp;
     604:	e0bff80b 	ldhu	r2,-32(fp)
     608:	e0bffd0d 	sth	r2,-12(fp)

		temp = y0;
     60c:	e0bffc0b 	ldhu	r2,-16(fp)
     610:	e0bff80d 	sth	r2,-32(fp)
		y0 = y1;
     614:	e0bffe0b 	ldhu	r2,-8(fp)
     618:	e0bffc0d 	sth	r2,-16(fp)
		y1 = temp;
     61c:	e0bff80b 	ldhu	r2,-32(fp)
     620:	e0bffe0d 	sth	r2,-8(fp)
	}
	alt_u16 deltax = x1 - x0;
     624:	e0fffd0b 	ldhu	r3,-12(fp)
     628:	e0bffb0b 	ldhu	r2,-20(fp)
     62c:	1885c83a 	sub	r2,r3,r2
     630:	e0bff88d 	sth	r2,-30(fp)
	alt_u16 deltay = abs(y1-y0);
     634:	e0fffe0b 	ldhu	r3,-8(fp)
     638:	e0bffc0b 	ldhu	r2,-16(fp)
     63c:	1885c83a 	sub	r2,r3,r2
     640:	1000010e 	bge	r2,zero,648 <drawline+0x104>
     644:	0085c83a 	sub	r2,zero,r2
     648:	e0bff90d 	sth	r2,-28(fp)
	alt_16 error = -(deltax /2);
     64c:	e0bff88b 	ldhu	r2,-30(fp)
     650:	1004d07a 	srli	r2,r2,1
     654:	0085c83a 	sub	r2,zero,r2
     658:	e0bff60d 	sth	r2,-40(fp)
	alt_u16 y = y0;
     65c:	e0bffc0b 	ldhu	r2,-16(fp)
     660:	e0bff68d 	sth	r2,-38(fp)
	alt_u16 x = x0;
     664:	e0bffb0b 	ldhu	r2,-20(fp)
     668:	e0bff70d 	sth	r2,-36(fp)
	alt_8 y_step;
	if(y0 < y1)
     66c:	e0fffc0b 	ldhu	r3,-16(fp)
     670:	e0bffe0b 	ldhu	r2,-8(fp)
     674:	1880032e 	bgeu	r3,r2,684 <drawline+0x140>
	{
		y_step =1;
     678:	00800044 	movi	r2,1
     67c:	e0bff785 	stb	r2,-34(fp)
     680:	00000206 	br	68c <drawline+0x148>
	}
	else
	{
		y_step =-1;
     684:	00bfffc4 	movi	r2,-1
     688:	e0bff785 	stb	r2,-34(fp)
	}
	for(x=x0;x<x1;x++)
     68c:	e0bffb0b 	ldhu	r2,-20(fp)
     690:	e0bff70d 	sth	r2,-36(fp)
     694:	00002a06 	br	740 <drawline+0x1fc>
	{
		if(is_steep)
     698:	e0bff7c3 	ldbu	r2,-33(fp)
     69c:	10000c26 	beq	r2,zero,6d0 <drawline+0x18c>
		{
			*(pixel_ctrl_ptr + (x << 9) + y) = color;
     6a0:	e0bff70b 	ldhu	r2,-36(fp)
     6a4:	1004927a 	slli	r2,r2,9
     6a8:	1007883a 	mov	r3,r2
     6ac:	e0bff68b 	ldhu	r2,-38(fp)
     6b0:	1885883a 	add	r2,r3,r2
     6b4:	1085883a 	add	r2,r2,r2
     6b8:	1007883a 	mov	r3,r2
     6bc:	e0bffa17 	ldw	r2,-24(fp)
     6c0:	10c5883a 	add	r2,r2,r3
     6c4:	e0ffff0b 	ldhu	r3,-4(fp)
     6c8:	10c0000d 	sth	r3,0(r2)
     6cc:	00000b06 	br	6fc <drawline+0x1b8>
		}
		else
		{
			*(pixel_ctrl_ptr + (y << 9) + x) = color;
     6d0:	e0bff68b 	ldhu	r2,-38(fp)
     6d4:	1004927a 	slli	r2,r2,9
     6d8:	1007883a 	mov	r3,r2
     6dc:	e0bff70b 	ldhu	r2,-36(fp)
     6e0:	1885883a 	add	r2,r3,r2
     6e4:	1085883a 	add	r2,r2,r2
     6e8:	1007883a 	mov	r3,r2
     6ec:	e0bffa17 	ldw	r2,-24(fp)
     6f0:	10c5883a 	add	r2,r2,r3
     6f4:	e0ffff0b 	ldhu	r3,-4(fp)
     6f8:	10c0000d 	sth	r3,0(r2)
		}
		error = error + deltay;
     6fc:	e0fff60b 	ldhu	r3,-40(fp)
     700:	e0bff90b 	ldhu	r2,-28(fp)
     704:	1885883a 	add	r2,r3,r2
     708:	e0bff60d 	sth	r2,-40(fp)
		if(error >= 0)
     70c:	e0bff60f 	ldh	r2,-40(fp)
     710:	10000816 	blt	r2,zero,734 <drawline+0x1f0>
		{
			y = y + y_step;
     714:	e0fff787 	ldb	r3,-34(fp)
     718:	e0bff68b 	ldhu	r2,-38(fp)
     71c:	1885883a 	add	r2,r3,r2
     720:	e0bff68d 	sth	r2,-38(fp)
			error = error - deltax;
     724:	e0fff60b 	ldhu	r3,-40(fp)
     728:	e0bff88b 	ldhu	r2,-30(fp)
     72c:	1885c83a 	sub	r2,r3,r2
     730:	e0bff60d 	sth	r2,-40(fp)
	}
	else
	{
		y_step =-1;
	}
	for(x=x0;x<x1;x++)
     734:	e0bff70b 	ldhu	r2,-36(fp)
     738:	10800044 	addi	r2,r2,1
     73c:	e0bff70d 	sth	r2,-36(fp)
     740:	e0fff70b 	ldhu	r3,-36(fp)
     744:	e0bffd0b 	ldhu	r2,-12(fp)
     748:	18bfd336 	bltu	r3,r2,698 <drawline+0x154>
		{
			y = y + y_step;
			error = error - deltax;
		}
	}
}
     74c:	e037883a 	mov	sp,fp
     750:	df000017 	ldw	fp,0(sp)
     754:	dec00104 	addi	sp,sp,4
     758:	f800283a 	ret

0000075c <drawcircle>:
void drawcircle(volatile short * pixel_ctrl_ptr, alt_u16 xs, alt_u8 ys, alt_u8 circle_radius, alt_u16 color)
{
     75c:	defff704 	addi	sp,sp,-36
     760:	df000815 	stw	fp,32(sp)
     764:	df000804 	addi	fp,sp,32
     768:	e13ffb15 	stw	r4,-20(fp)
     76c:	3009883a 	mov	r4,r6
     770:	3807883a 	mov	r3,r7
     774:	e0800117 	ldw	r2,4(fp)
     778:	e17ffc0d 	sth	r5,-16(fp)
     77c:	e13ffd05 	stb	r4,-12(fp)
     780:	e0fffe05 	stb	r3,-8(fp)
     784:	e0bfff0d 	sth	r2,-4(fp)
	int x = circle_radius;
     788:	e0bffe03 	ldbu	r2,-8(fp)
     78c:	e0bff815 	stw	r2,-32(fp)
	int y = 0;
     790:	e03ff915 	stw	zero,-28(fp)
	int err = -circle_radius;
     794:	e0bffe03 	ldbu	r2,-8(fp)
     798:	0085c83a 	sub	r2,zero,r2
     79c:	e0bffa15 	stw	r2,-24(fp)
	while(x >= y)
     7a0:	00008d06 	br	9d8 <drawcircle+0x27c>
	{
		*(pixel_ctrl_ptr + ((y+ys) << 9) + (xs+x)) = color;
     7a4:	e0fffd03 	ldbu	r3,-12(fp)
     7a8:	e0bff917 	ldw	r2,-28(fp)
     7ac:	1885883a 	add	r2,r3,r2
     7b0:	1004927a 	slli	r2,r2,9
     7b4:	1009883a 	mov	r4,r2
     7b8:	e0fffc0b 	ldhu	r3,-16(fp)
     7bc:	e0bff817 	ldw	r2,-32(fp)
     7c0:	1885883a 	add	r2,r3,r2
     7c4:	2085883a 	add	r2,r4,r2
     7c8:	1085883a 	add	r2,r2,r2
     7cc:	1007883a 	mov	r3,r2
     7d0:	e0bffb17 	ldw	r2,-20(fp)
     7d4:	10c5883a 	add	r2,r2,r3
     7d8:	e0ffff0b 	ldhu	r3,-4(fp)
     7dc:	10c0000d 	sth	r3,0(r2)
		*(pixel_ctrl_ptr + ((ys+y) << 9) + (xs-x)) = color;
     7e0:	e0fffd03 	ldbu	r3,-12(fp)
     7e4:	e0bff917 	ldw	r2,-28(fp)
     7e8:	1885883a 	add	r2,r3,r2
     7ec:	1004927a 	slli	r2,r2,9
     7f0:	1009883a 	mov	r4,r2
     7f4:	e0fffc0b 	ldhu	r3,-16(fp)
     7f8:	e0bff817 	ldw	r2,-32(fp)
     7fc:	1885c83a 	sub	r2,r3,r2
     800:	2085883a 	add	r2,r4,r2
     804:	1085883a 	add	r2,r2,r2
     808:	1007883a 	mov	r3,r2
     80c:	e0bffb17 	ldw	r2,-20(fp)
     810:	10c5883a 	add	r2,r2,r3
     814:	e0ffff0b 	ldhu	r3,-4(fp)
     818:	10c0000d 	sth	r3,0(r2)
		*(pixel_ctrl_ptr + ((ys-y) << 9) + (xs+x)) = color;
     81c:	e0fffd03 	ldbu	r3,-12(fp)
     820:	e0bff917 	ldw	r2,-28(fp)
     824:	1885c83a 	sub	r2,r3,r2
     828:	1004927a 	slli	r2,r2,9
     82c:	1009883a 	mov	r4,r2
     830:	e0fffc0b 	ldhu	r3,-16(fp)
     834:	e0bff817 	ldw	r2,-32(fp)
     838:	1885883a 	add	r2,r3,r2
     83c:	2085883a 	add	r2,r4,r2
     840:	1085883a 	add	r2,r2,r2
     844:	1007883a 	mov	r3,r2
     848:	e0bffb17 	ldw	r2,-20(fp)
     84c:	10c5883a 	add	r2,r2,r3
     850:	e0ffff0b 	ldhu	r3,-4(fp)
     854:	10c0000d 	sth	r3,0(r2)
		*(pixel_ctrl_ptr + ((ys-y) << 9) + (xs-x)) = color;
     858:	e0fffd03 	ldbu	r3,-12(fp)
     85c:	e0bff917 	ldw	r2,-28(fp)
     860:	1885c83a 	sub	r2,r3,r2
     864:	1004927a 	slli	r2,r2,9
     868:	1009883a 	mov	r4,r2
     86c:	e0fffc0b 	ldhu	r3,-16(fp)
     870:	e0bff817 	ldw	r2,-32(fp)
     874:	1885c83a 	sub	r2,r3,r2
     878:	2085883a 	add	r2,r4,r2
     87c:	1085883a 	add	r2,r2,r2
     880:	1007883a 	mov	r3,r2
     884:	e0bffb17 	ldw	r2,-20(fp)
     888:	10c5883a 	add	r2,r2,r3
     88c:	e0ffff0b 	ldhu	r3,-4(fp)
     890:	10c0000d 	sth	r3,0(r2)
		*(pixel_ctrl_ptr + ((ys+x) << 9) + (xs+y)) = color;
     894:	e0fffd03 	ldbu	r3,-12(fp)
     898:	e0bff817 	ldw	r2,-32(fp)
     89c:	1885883a 	add	r2,r3,r2
     8a0:	1004927a 	slli	r2,r2,9
     8a4:	1009883a 	mov	r4,r2
     8a8:	e0fffc0b 	ldhu	r3,-16(fp)
     8ac:	e0bff917 	ldw	r2,-28(fp)
     8b0:	1885883a 	add	r2,r3,r2
     8b4:	2085883a 	add	r2,r4,r2
     8b8:	1085883a 	add	r2,r2,r2
     8bc:	1007883a 	mov	r3,r2
     8c0:	e0bffb17 	ldw	r2,-20(fp)
     8c4:	10c5883a 	add	r2,r2,r3
     8c8:	e0ffff0b 	ldhu	r3,-4(fp)
     8cc:	10c0000d 	sth	r3,0(r2)
		*(pixel_ctrl_ptr + ((x+ys) << 9) + (xs-y)) = color;
     8d0:	e0fffd03 	ldbu	r3,-12(fp)
     8d4:	e0bff817 	ldw	r2,-32(fp)
     8d8:	1885883a 	add	r2,r3,r2
     8dc:	1004927a 	slli	r2,r2,9
     8e0:	1009883a 	mov	r4,r2
     8e4:	e0fffc0b 	ldhu	r3,-16(fp)
     8e8:	e0bff917 	ldw	r2,-28(fp)
     8ec:	1885c83a 	sub	r2,r3,r2
     8f0:	2085883a 	add	r2,r4,r2
     8f4:	1085883a 	add	r2,r2,r2
     8f8:	1007883a 	mov	r3,r2
     8fc:	e0bffb17 	ldw	r2,-20(fp)
     900:	10c5883a 	add	r2,r2,r3
     904:	e0ffff0b 	ldhu	r3,-4(fp)
     908:	10c0000d 	sth	r3,0(r2)
		*(pixel_ctrl_ptr + ((ys-x) << 9) + (xs+y)) = color;
     90c:	e0fffd03 	ldbu	r3,-12(fp)
     910:	e0bff817 	ldw	r2,-32(fp)
     914:	1885c83a 	sub	r2,r3,r2
     918:	1004927a 	slli	r2,r2,9
     91c:	1009883a 	mov	r4,r2
     920:	e0fffc0b 	ldhu	r3,-16(fp)
     924:	e0bff917 	ldw	r2,-28(fp)
     928:	1885883a 	add	r2,r3,r2
     92c:	2085883a 	add	r2,r4,r2
     930:	1085883a 	add	r2,r2,r2
     934:	1007883a 	mov	r3,r2
     938:	e0bffb17 	ldw	r2,-20(fp)
     93c:	10c5883a 	add	r2,r2,r3
     940:	e0ffff0b 	ldhu	r3,-4(fp)
     944:	10c0000d 	sth	r3,0(r2)
		*(pixel_ctrl_ptr + ((ys-x) << 9) + (xs-y)) = color;
     948:	e0fffd03 	ldbu	r3,-12(fp)
     94c:	e0bff817 	ldw	r2,-32(fp)
     950:	1885c83a 	sub	r2,r3,r2
     954:	1004927a 	slli	r2,r2,9
     958:	1009883a 	mov	r4,r2
     95c:	e0fffc0b 	ldhu	r3,-16(fp)
     960:	e0bff917 	ldw	r2,-28(fp)
     964:	1885c83a 	sub	r2,r3,r2
     968:	2085883a 	add	r2,r4,r2
     96c:	1085883a 	add	r2,r2,r2
     970:	1007883a 	mov	r3,r2
     974:	e0bffb17 	ldw	r2,-20(fp)
     978:	10c5883a 	add	r2,r2,r3
     97c:	e0ffff0b 	ldhu	r3,-4(fp)
     980:	10c0000d 	sth	r3,0(r2)

		err += y++;
     984:	e0bff917 	ldw	r2,-28(fp)
     988:	10c00044 	addi	r3,r2,1
     98c:	e0fff915 	stw	r3,-28(fp)
     990:	e0fffa17 	ldw	r3,-24(fp)
     994:	1885883a 	add	r2,r3,r2
     998:	e0bffa15 	stw	r2,-24(fp)
		err += y;
     99c:	e0fffa17 	ldw	r3,-24(fp)
     9a0:	e0bff917 	ldw	r2,-28(fp)
     9a4:	1885883a 	add	r2,r3,r2
     9a8:	e0bffa15 	stw	r2,-24(fp)
		if(err >= 0)
     9ac:	e0bffa17 	ldw	r2,-24(fp)
     9b0:	10000916 	blt	r2,zero,9d8 <drawcircle+0x27c>
		{
			x--;
     9b4:	e0bff817 	ldw	r2,-32(fp)
     9b8:	10bfffc4 	addi	r2,r2,-1
     9bc:	e0bff815 	stw	r2,-32(fp)
			err = err -x -x;
     9c0:	e0fffa17 	ldw	r3,-24(fp)
     9c4:	e0bff817 	ldw	r2,-32(fp)
     9c8:	1887c83a 	sub	r3,r3,r2
     9cc:	e0bff817 	ldw	r2,-32(fp)
     9d0:	1885c83a 	sub	r2,r3,r2
     9d4:	e0bffa15 	stw	r2,-24(fp)
void drawcircle(volatile short * pixel_ctrl_ptr, alt_u16 xs, alt_u8 ys, alt_u8 circle_radius, alt_u16 color)
{
	int x = circle_radius;
	int y = 0;
	int err = -circle_radius;
	while(x >= y)
     9d8:	e0fff817 	ldw	r3,-32(fp)
     9dc:	e0bff917 	ldw	r2,-28(fp)
     9e0:	18bf700e 	bge	r3,r2,7a4 <drawcircle+0x48>
			err = err -x -x;
		}


	}
}
     9e4:	e037883a 	mov	sp,fp
     9e8:	df000017 	ldw	fp,0(sp)
     9ec:	dec00104 	addi	sp,sp,4
     9f0:	f800283a 	ret

000009f4 <wait_for_vsync>:
void wait_for_vsync(volatile short * buffer_register,volatile short *  dma_control)
{
     9f4:	defffd04 	addi	sp,sp,-12
     9f8:	df000215 	stw	fp,8(sp)
     9fc:	df000204 	addi	fp,sp,8
     a00:	e13ffe15 	stw	r4,-8(fp)
     a04:	e17fff15 	stw	r5,-4(fp)
	*(buffer_register) = 1; //swap backbuffer and front buffer (which are the same at the moment)
     a08:	e0bffe17 	ldw	r2,-8(fp)
     a0c:	00c00044 	movi	r3,1
     a10:	10c0000d 	sth	r3,0(r2)

	while(*(dma_control) & 1) //if this bit becomes 0, the screen has updated
     a14:	0001883a 	nop
     a18:	e0bfff17 	ldw	r2,-4(fp)
     a1c:	1080000b 	ldhu	r2,0(r2)
     a20:	10bfffcc 	andi	r2,r2,65535
     a24:	1080004c 	andi	r2,r2,1
     a28:	103ffb1e 	bne	r2,zero,a18 <wait_for_vsync+0x24>
	{
	}
}
     a2c:	e037883a 	mov	sp,fp
     a30:	df000017 	ldw	fp,0(sp)
     a34:	dec00104 	addi	sp,sp,4
     a38:	f800283a 	ret

00000a3c <drawtext>:
void drawtext(volatile char * char_ctrl_ptr, char * text_ptr,alt_u16 x, alt_u8 y)
{
     a3c:	defffa04 	addi	sp,sp,-24
     a40:	df000515 	stw	fp,20(sp)
     a44:	df000504 	addi	fp,sp,20
     a48:	e13ffc15 	stw	r4,-16(fp)
     a4c:	e17ffd15 	stw	r5,-12(fp)
     a50:	3007883a 	mov	r3,r6
     a54:	3805883a 	mov	r2,r7
     a58:	e0fffe0d 	sth	r3,-8(fp)
     a5c:	e0bfff05 	stb	r2,-4(fp)
	int offset = (y<<7)+x;
     a60:	e0bfff03 	ldbu	r2,-4(fp)
     a64:	100691fa 	slli	r3,r2,7
     a68:	e0bffe0b 	ldhu	r2,-8(fp)
     a6c:	1885883a 	add	r2,r3,r2
     a70:	e0bffb15 	stw	r2,-20(fp)
	while(*(text_ptr))
     a74:	00000c06 	br	aa8 <drawtext+0x6c>
	{
		*(char_ctrl_ptr + offset) = *(text_ptr); //write to character buffer
     a78:	e0bffb17 	ldw	r2,-20(fp)
     a7c:	e0fffc17 	ldw	r3,-16(fp)
     a80:	1885883a 	add	r2,r3,r2
     a84:	e0fffd17 	ldw	r3,-12(fp)
     a88:	18c00003 	ldbu	r3,0(r3)
     a8c:	10c00005 	stb	r3,0(r2)
		++text_ptr;
     a90:	e0bffd17 	ldw	r2,-12(fp)
     a94:	10800044 	addi	r2,r2,1
     a98:	e0bffd15 	stw	r2,-12(fp)
		++offset;
     a9c:	e0bffb17 	ldw	r2,-20(fp)
     aa0:	10800044 	addi	r2,r2,1
     aa4:	e0bffb15 	stw	r2,-20(fp)
	}
}
void drawtext(volatile char * char_ctrl_ptr, char * text_ptr,alt_u16 x, alt_u8 y)
{
	int offset = (y<<7)+x;
	while(*(text_ptr))
     aa8:	e0bffd17 	ldw	r2,-12(fp)
     aac:	10800003 	ldbu	r2,0(r2)
     ab0:	10803fcc 	andi	r2,r2,255
     ab4:	1080201c 	xori	r2,r2,128
     ab8:	10bfe004 	addi	r2,r2,-128
     abc:	103fee1e 	bne	r2,zero,a78 <drawtext+0x3c>
	{
		*(char_ctrl_ptr + offset) = *(text_ptr); //write to character buffer
		++text_ptr;
		++offset;
	}
}
     ac0:	e037883a 	mov	sp,fp
     ac4:	df000017 	ldw	fp,0(sp)
     ac8:	dec00104 	addi	sp,sp,4
     acc:	f800283a 	ret

00000ad0 <task1>:
/* Definition of Task Priorities */
#define TASK1_PRIORITY      2
#define TASK2_PRIORITY      1

void task1(void* pdata)
{
     ad0:	defff904 	addi	sp,sp,-28
     ad4:	dfc00615 	stw	ra,24(sp)
     ad8:	df000515 	stw	fp,20(sp)
     adc:	df000504 	addi	fp,sp,20
     ae0:	e13fff15 	stw	r4,-4(fp)

	OSTimeDly(1);
     ae4:	01000044 	movi	r4,1
     ae8:	0008b980 	call	8b98 <OSTimeDly>
	volatile short * pixel_ctrl_ptr = (volatile short *) pdata;
     aec:	e0bfff17 	ldw	r2,-4(fp)
     af0:	e0bffe15 	stw	r2,-8(fp)

	int i=0;
     af4:	e03ffd15 	stw	zero,-12(fp)
	//d-pad
	drawrectangle( pixel_ctrl_ptr , 80, 100, 10, 15, 0xFFFF);
     af8:	008003c4 	movi	r2,15
     afc:	d8800015 	stw	r2,0(sp)
     b00:	00bfffd4 	movui	r2,65535
     b04:	d8800115 	stw	r2,4(sp)
     b08:	e13ffe17 	ldw	r4,-8(fp)
     b0c:	01401404 	movi	r5,80
     b10:	01801904 	movi	r6,100
     b14:	01c00284 	movi	r7,10
     b18:	00004000 	call	400 <drawrectangle>
	drawrectangle( pixel_ctrl_ptr , 80, 130, 10, 15, 0xFFFF);
     b1c:	008003c4 	movi	r2,15
     b20:	d8800015 	stw	r2,0(sp)
     b24:	00bfffd4 	movui	r2,65535
     b28:	d8800115 	stw	r2,4(sp)
     b2c:	e13ffe17 	ldw	r4,-8(fp)
     b30:	01401404 	movi	r5,80
     b34:	01802084 	movi	r6,130
     b38:	01c00284 	movi	r7,10
     b3c:	00004000 	call	400 <drawrectangle>
	drawrectangle( pixel_ctrl_ptr , 62, 117, 15, 10, 0xFFFF);
     b40:	00800284 	movi	r2,10
     b44:	d8800015 	stw	r2,0(sp)
     b48:	00bfffd4 	movui	r2,65535
     b4c:	d8800115 	stw	r2,4(sp)
     b50:	e13ffe17 	ldw	r4,-8(fp)
     b54:	01400f84 	movi	r5,62
     b58:	01801d44 	movi	r6,117
     b5c:	01c003c4 	movi	r7,15
     b60:	00004000 	call	400 <drawrectangle>
	drawrectangle( pixel_ctrl_ptr , 93, 117, 15, 10, 0xFFFF);
     b64:	00800284 	movi	r2,10
     b68:	d8800015 	stw	r2,0(sp)
     b6c:	00bfffd4 	movui	r2,65535
     b70:	d8800115 	stw	r2,4(sp)
     b74:	e13ffe17 	ldw	r4,-8(fp)
     b78:	01401744 	movi	r5,93
     b7c:	01801d44 	movi	r6,117
     b80:	01c003c4 	movi	r7,15
     b84:	00004000 	call	400 <drawrectangle>

	//select start
	drawrectangle( pixel_ctrl_ptr , 130, 117,15, 10, 0xFFFF);
     b88:	00800284 	movi	r2,10
     b8c:	d8800015 	stw	r2,0(sp)
     b90:	00bfffd4 	movui	r2,65535
     b94:	d8800115 	stw	r2,4(sp)
     b98:	e13ffe17 	ldw	r4,-8(fp)
     b9c:	01402084 	movi	r5,130
     ba0:	01801d44 	movi	r6,117
     ba4:	01c003c4 	movi	r7,15
     ba8:	00004000 	call	400 <drawrectangle>
	drawrectangle( pixel_ctrl_ptr , 160, 117, 15, 10, 0xFFFF);
     bac:	00800284 	movi	r2,10
     bb0:	d8800015 	stw	r2,0(sp)
     bb4:	00bfffd4 	movui	r2,65535
     bb8:	d8800115 	stw	r2,4(sp)
     bbc:	e13ffe17 	ldw	r4,-8(fp)
     bc0:	01402804 	movi	r5,160
     bc4:	01801d44 	movi	r6,117
     bc8:	01c003c4 	movi	r7,15
     bcc:	00004000 	call	400 <drawrectangle>

	//buttons
	drawcircle( pixel_ctrl_ptr ,205,121,7,0xFFFF);
     bd0:	00bfffd4 	movui	r2,65535
     bd4:	d8800015 	stw	r2,0(sp)
     bd8:	e13ffe17 	ldw	r4,-8(fp)
     bdc:	01403344 	movi	r5,205
     be0:	01801e44 	movi	r6,121
     be4:	01c001c4 	movi	r7,7
     be8:	000075c0 	call	75c <drawcircle>
	drawcircle( pixel_ctrl_ptr ,235,121,7,0xFFFF);
     bec:	00bfffd4 	movui	r2,65535
     bf0:	d8800015 	stw	r2,0(sp)
     bf4:	e13ffe17 	ldw	r4,-8(fp)
     bf8:	01403ac4 	movi	r5,235
     bfc:	01801e44 	movi	r6,121
     c00:	01c001c4 	movi	r7,7
     c04:	000075c0 	call	75c <drawcircle>
	drawcircle( pixel_ctrl_ptr ,220,106,7,0xFFFF);
     c08:	00bfffd4 	movui	r2,65535
     c0c:	d8800015 	stw	r2,0(sp)
     c10:	e13ffe17 	ldw	r4,-8(fp)
     c14:	01403704 	movi	r5,220
     c18:	01801a84 	movi	r6,106
     c1c:	01c001c4 	movi	r7,7
     c20:	000075c0 	call	75c <drawcircle>
	drawcircle( pixel_ctrl_ptr ,220,136,7,0xFFFF);
     c24:	00bfffd4 	movui	r2,65535
     c28:	d8800015 	stw	r2,0(sp)
     c2c:	e13ffe17 	ldw	r4,-8(fp)
     c30:	01403704 	movi	r5,220
     c34:	01802204 	movi	r6,136
     c38:	01c001c4 	movi	r7,7
     c3c:	000075c0 	call	75c <drawcircle>

	//upper keys
	drawrectangle( pixel_ctrl_ptr , 75, 80, 20, 10, 0xFFFF);
     c40:	00800284 	movi	r2,10
     c44:	d8800015 	stw	r2,0(sp)
     c48:	00bfffd4 	movui	r2,65535
     c4c:	d8800115 	stw	r2,4(sp)
     c50:	e13ffe17 	ldw	r4,-8(fp)
     c54:	014012c4 	movi	r5,75
     c58:	01801404 	movi	r6,80
     c5c:	01c00504 	movi	r7,20
     c60:	00004000 	call	400 <drawrectangle>
	drawrectangle( pixel_ctrl_ptr , 75, 65, 20, 10, 0xFFFF);
     c64:	00800284 	movi	r2,10
     c68:	d8800015 	stw	r2,0(sp)
     c6c:	00bfffd4 	movui	r2,65535
     c70:	d8800115 	stw	r2,4(sp)
     c74:	e13ffe17 	ldw	r4,-8(fp)
     c78:	014012c4 	movi	r5,75
     c7c:	01801044 	movi	r6,65
     c80:	01c00504 	movi	r7,20
     c84:	00004000 	call	400 <drawrectangle>
	drawrectangle( pixel_ctrl_ptr , 210, 80, 20,10, 0xFFFF);
     c88:	00800284 	movi	r2,10
     c8c:	d8800015 	stw	r2,0(sp)
     c90:	00bfffd4 	movui	r2,65535
     c94:	d8800115 	stw	r2,4(sp)
     c98:	e13ffe17 	ldw	r4,-8(fp)
     c9c:	01403484 	movi	r5,210
     ca0:	01801404 	movi	r6,80
     ca4:	01c00504 	movi	r7,20
     ca8:	00004000 	call	400 <drawrectangle>
	drawrectangle( pixel_ctrl_ptr , 210, 65, 20, 10, 0xFFFF);
     cac:	00800284 	movi	r2,10
     cb0:	d8800015 	stw	r2,0(sp)
     cb4:	00bfffd4 	movui	r2,65535
     cb8:	d8800115 	stw	r2,4(sp)
     cbc:	e13ffe17 	ldw	r4,-8(fp)
     cc0:	01403484 	movi	r5,210
     cc4:	01801044 	movi	r6,65
     cc8:	01c00504 	movi	r7,20
     ccc:	00004000 	call	400 <drawrectangle>

	//analog sticks
	drawcircle( pixel_ctrl_ptr ,110,155,15,0xFFFF);
     cd0:	00bfffd4 	movui	r2,65535
     cd4:	d8800015 	stw	r2,0(sp)
     cd8:	e13ffe17 	ldw	r4,-8(fp)
     cdc:	01401b84 	movi	r5,110
     ce0:	018026c4 	movi	r6,155
     ce4:	01c003c4 	movi	r7,15
     ce8:	000075c0 	call	75c <drawcircle>
	drawcircle( pixel_ctrl_ptr ,195,155,15,0xFFFF);
     cec:	00bfffd4 	movui	r2,65535
     cf0:	d8800015 	stw	r2,0(sp)
     cf4:	e13ffe17 	ldw	r4,-8(fp)
     cf8:	014030c4 	movi	r5,195
     cfc:	018026c4 	movi	r6,155
     d00:	01c003c4 	movi	r7,15
     d04:	000075c0 	call	75c <drawcircle>
	drawcircle( pixel_ctrl_ptr ,110,155,9,0xFFFF);
     d08:	00bfffd4 	movui	r2,65535
     d0c:	d8800015 	stw	r2,0(sp)
     d10:	e13ffe17 	ldw	r4,-8(fp)
     d14:	01401b84 	movi	r5,110
     d18:	018026c4 	movi	r6,155
     d1c:	01c00244 	movi	r7,9
     d20:	000075c0 	call	75c <drawcircle>
	drawcircle( pixel_ctrl_ptr ,195,155,9,0xFFFF);
     d24:	00bfffd4 	movui	r2,65535
     d28:	d8800015 	stw	r2,0(sp)
     d2c:	e13ffe17 	ldw	r4,-8(fp)
     d30:	014030c4 	movi	r5,195
     d34:	018026c4 	movi	r6,155
     d38:	01c00244 	movi	r7,9
     d3c:	000075c0 	call	75c <drawcircle>
	while(1)
	{
		if(i>=10)
     d40:	e0bffd17 	ldw	r2,-12(fp)
     d44:	10800290 	cmplti	r2,r2,10
     d48:	10001a1e 	bne	r2,zero,db4 <task1+0x2e4>
		{
			drawline(pixel_ctrl_ptr,0+i-10,50,0+i-10,60,0x0000);
     d4c:	e0bffd17 	ldw	r2,-12(fp)
     d50:	10bffd84 	addi	r2,r2,-10
     d54:	117fffcc 	andi	r5,r2,65535
     d58:	e0bffd17 	ldw	r2,-12(fp)
     d5c:	10bffd84 	addi	r2,r2,-10
     d60:	10ffffcc 	andi	r3,r2,65535
     d64:	00800f04 	movi	r2,60
     d68:	d8800015 	stw	r2,0(sp)
     d6c:	d8000115 	stw	zero,4(sp)
     d70:	e13ffe17 	ldw	r4,-8(fp)
     d74:	01800c84 	movi	r6,50
     d78:	180f883a 	mov	r7,r3
     d7c:	00005440 	call	544 <drawline>
			drawline(pixel_ctrl_ptr,0+i-11,50,0+i-11,60,0x0000);
     d80:	e0bffd17 	ldw	r2,-12(fp)
     d84:	10bffd44 	addi	r2,r2,-11
     d88:	117fffcc 	andi	r5,r2,65535
     d8c:	e0bffd17 	ldw	r2,-12(fp)
     d90:	10bffd44 	addi	r2,r2,-11
     d94:	10ffffcc 	andi	r3,r2,65535
     d98:	00800f04 	movi	r2,60
     d9c:	d8800015 	stw	r2,0(sp)
     da0:	d8000115 	stw	zero,4(sp)
     da4:	e13ffe17 	ldw	r4,-8(fp)
     da8:	01800c84 	movi	r6,50
     dac:	180f883a 	mov	r7,r3
     db0:	00005440 	call	544 <drawline>
		}
		if(i<=320)
     db4:	e0bffd17 	ldw	r2,-12(fp)
     db8:	10805048 	cmpgei	r2,r2,321
     dbc:	10001a1e 	bne	r2,zero,e28 <task1+0x358>
		{
			drawline(pixel_ctrl_ptr,0+i,50,0+i,60,0x0FFF);
     dc0:	e0bffd17 	ldw	r2,-12(fp)
     dc4:	117fffcc 	andi	r5,r2,65535
     dc8:	e0bffd17 	ldw	r2,-12(fp)
     dcc:	10ffffcc 	andi	r3,r2,65535
     dd0:	00800f04 	movi	r2,60
     dd4:	d8800015 	stw	r2,0(sp)
     dd8:	0083ffc4 	movi	r2,4095
     ddc:	d8800115 	stw	r2,4(sp)
     de0:	e13ffe17 	ldw	r4,-8(fp)
     de4:	01800c84 	movi	r6,50
     de8:	180f883a 	mov	r7,r3
     dec:	00005440 	call	544 <drawline>
			drawline(pixel_ctrl_ptr,0+i+1,50,0+i+1,60,0x0FFF);
     df0:	e0bffd17 	ldw	r2,-12(fp)
     df4:	10800044 	addi	r2,r2,1
     df8:	117fffcc 	andi	r5,r2,65535
     dfc:	e0bffd17 	ldw	r2,-12(fp)
     e00:	10800044 	addi	r2,r2,1
     e04:	10ffffcc 	andi	r3,r2,65535
     e08:	00800f04 	movi	r2,60
     e0c:	d8800015 	stw	r2,0(sp)
     e10:	0083ffc4 	movi	r2,4095
     e14:	d8800115 	stw	r2,4(sp)
     e18:	e13ffe17 	ldw	r4,-8(fp)
     e1c:	01800c84 	movi	r6,50
     e20:	180f883a 	mov	r7,r3
     e24:	00005440 	call	544 <drawline>
		}
		if(i==330)
     e28:	e0bffd17 	ldw	r2,-12(fp)
     e2c:	10805298 	cmpnei	r2,r2,330
     e30:	1000011e 	bne	r2,zero,e38 <task1+0x368>
		{
			i = 0;
     e34:	e03ffd15 	stw	zero,-12(fp)
		}
		i++;
     e38:	e0bffd17 	ldw	r2,-12(fp)
     e3c:	10800044 	addi	r2,r2,1
     e40:	e0bffd15 	stw	r2,-12(fp)
		OSTimeDly(1);
     e44:	01000044 	movi	r4,1
     e48:	0008b980 	call	8b98 <OSTimeDly>
		//wait_for_vsync(buffer_register,dma_control);
	}
     e4c:	003fbc06 	br	d40 <task1+0x270>

00000e50 <task2>:
}
void task2(void* pdata)
{
     e50:	defffd04 	addi	sp,sp,-12
     e54:	dfc00215 	stw	ra,8(sp)
     e58:	df000115 	stw	fp,4(sp)
     e5c:	df000104 	addi	fp,sp,4
     e60:	e13fff15 	stw	r4,-4(fp)

		drawtext((volatile char* )pdata, "FPGA_GAME\0" ,36, 10);
     e64:	e13fff17 	ldw	r4,-4(fp)
     e68:	01400074 	movhi	r5,1
     e6c:	2974c904 	addi	r5,r5,-11484
     e70:	01800904 	movi	r6,36
     e74:	01c00284 	movi	r7,10
     e78:	0000a3c0 	call	a3c <drawtext>
		OSTaskDel(OS_PRIO_SELF);
     e7c:	01003fc4 	movi	r4,255
     e80:	0007b8c0 	call	7b8c <OSTaskDel>

}
     e84:	e037883a 	mov	sp,fp
     e88:	dfc00117 	ldw	ra,4(sp)
     e8c:	df000017 	ldw	fp,0(sp)
     e90:	dec00204 	addi	sp,sp,8
     e94:	f800283a 	ret

00000e98 <main>:
int main(void)
{
     e98:	defff704 	addi	sp,sp,-36
     e9c:	dfc00815 	stw	ra,32(sp)
     ea0:	df000715 	stw	fp,28(sp)
     ea4:	df000704 	addi	fp,sp,28
	OSInit();
     ea8:	0001cdc0 	call	1cdc <OSInit>
	volatile short * pixel_ctrl_ptr = pixel_buffer_start;
     eac:	d0a00017 	ldw	r2,-32768(gp)
     eb0:	e0bffe15 	stw	r2,-8(fp)
	volatile char * char_ctrl_ptr = character_buffer;
     eb4:	d0a00317 	ldw	r2,-32756(gp)
     eb8:	e0bfff15 	stw	r2,-4(fp)

	*(dma_control) &= (1<<2); //Enable DMA controller
     ebc:	d0a00217 	ldw	r2,-32760(gp)
     ec0:	d0e00217 	ldw	r3,-32760(gp)
     ec4:	18c0000b 	ldhu	r3,0(r3)
     ec8:	18c0010c 	andi	r3,r3,4
     ecc:	10c0000d 	sth	r3,0(r2)

	clearscreen(pixel_ctrl_ptr);
     ed0:	e13ffe17 	ldw	r4,-8(fp)
     ed4:	00002800 	call	280 <clearscreen>
	drawbox(pixel_ctrl_ptr, 34*4, 9*4, 48, 10,0xFA01);
     ed8:	00800284 	movi	r2,10
     edc:	d8800015 	stw	r2,0(sp)
     ee0:	00be8054 	movui	r2,64001
     ee4:	d8800115 	stw	r2,4(sp)
     ee8:	e13ffe17 	ldw	r4,-8(fp)
     eec:	01402204 	movi	r5,136
     ef0:	01800904 	movi	r6,36
     ef4:	01c00c04 	movi	r7,48
     ef8:	00003340 	call	334 <drawbox>

	wait_for_vsync(buffer_register,dma_control);
     efc:	d0e00117 	ldw	r3,-32764(gp)
     f00:	d0a00217 	ldw	r2,-32760(gp)
     f04:	1809883a 	mov	r4,r3
     f08:	100b883a 	mov	r5,r2
     f0c:	00009f40 	call	9f4 <wait_for_vsync>




	OSTaskCreateExt(task1,
     f10:	00800084 	movi	r2,2
     f14:	d8800015 	stw	r2,0(sp)
     f18:	00800074 	movhi	r2,1
     f1c:	1082e304 	addi	r2,r2,2956
     f20:	d8800115 	stw	r2,4(sp)
     f24:	00820004 	movi	r2,2048
     f28:	d8800215 	stw	r2,8(sp)
     f2c:	d8000315 	stw	zero,12(sp)
     f30:	d8000415 	stw	zero,16(sp)
     f34:	01000034 	movhi	r4,0
     f38:	2102b404 	addi	r4,r4,2768
     f3c:	e17ffe17 	ldw	r5,-8(fp)
     f40:	01800074 	movhi	r6,1
     f44:	318ae204 	addi	r6,r6,11144
     f48:	01c00084 	movi	r7,2
     f4c:	00079a00 	call	79a0 <OSTaskCreateExt>
			TASK_STACKSIZE,
			NULL,
			0);


	OSTaskCreateExt(task2,
     f50:	00800044 	movi	r2,1
     f54:	d8800015 	stw	r2,0(sp)
     f58:	00800074 	movhi	r2,1
     f5c:	108ae304 	addi	r2,r2,11148
     f60:	d8800115 	stw	r2,4(sp)
     f64:	00820004 	movi	r2,2048
     f68:	d8800215 	stw	r2,8(sp)
     f6c:	d8000315 	stw	zero,12(sp)
     f70:	d8000415 	stw	zero,16(sp)
     f74:	01000034 	movhi	r4,0
     f78:	21039404 	addi	r4,r4,3664
     f7c:	e17fff17 	ldw	r5,-4(fp)
     f80:	01800074 	movhi	r6,1
     f84:	3192e204 	addi	r6,r6,19336
     f88:	01c00044 	movi	r7,1
     f8c:	00079a00 	call	79a0 <OSTaskCreateExt>
			TASK2_PRIORITY,
			task2_stk,
			TASK_STACKSIZE,
			NULL,
			0);
	OSStart();
     f90:	00020000 	call	2000 <OSStart>
	return 0;
     f94:	0005883a 	mov	r2,zero
}
     f98:	e037883a 	mov	sp,fp
     f9c:	dfc00117 	ldw	ra,4(sp)
     fa0:	df000017 	ldw	fp,0(sp)
     fa4:	dec00204 	addi	sp,sp,8
     fa8:	f800283a 	ret

00000fac <alt_load_section>:
 */

static void ALT_INLINE alt_load_section (alt_u32* from, 
                                         alt_u32* to, 
                                         alt_u32* end)
{
     fac:	defffc04 	addi	sp,sp,-16
     fb0:	df000315 	stw	fp,12(sp)
     fb4:	df000304 	addi	fp,sp,12
     fb8:	e13ffd15 	stw	r4,-12(fp)
     fbc:	e17ffe15 	stw	r5,-8(fp)
     fc0:	e1bfff15 	stw	r6,-4(fp)
  if (to != from)
     fc4:	e0fffe17 	ldw	r3,-8(fp)
     fc8:	e0bffd17 	ldw	r2,-12(fp)
     fcc:	18800c26 	beq	r3,r2,1000 <alt_load_section+0x54>
  {
    while( to != end )
     fd0:	00000806 	br	ff4 <alt_load_section+0x48>
    {
      *to++ = *from++;
     fd4:	e0bffe17 	ldw	r2,-8(fp)
     fd8:	10c00104 	addi	r3,r2,4
     fdc:	e0fffe15 	stw	r3,-8(fp)
     fe0:	e0fffd17 	ldw	r3,-12(fp)
     fe4:	19000104 	addi	r4,r3,4
     fe8:	e13ffd15 	stw	r4,-12(fp)
     fec:	18c00017 	ldw	r3,0(r3)
     ff0:	10c00015 	stw	r3,0(r2)
                                         alt_u32* to, 
                                         alt_u32* end)
{
  if (to != from)
  {
    while( to != end )
     ff4:	e0fffe17 	ldw	r3,-8(fp)
     ff8:	e0bfff17 	ldw	r2,-4(fp)
     ffc:	18bff51e 	bne	r3,r2,fd4 <alt_load_section+0x28>
    {
      *to++ = *from++;
    }
  }
}
    1000:	e037883a 	mov	sp,fp
    1004:	df000017 	ldw	fp,0(sp)
    1008:	dec00104 	addi	sp,sp,4
    100c:	f800283a 	ret

00001010 <alt_load>:
 * there is no bootloader, so this application is responsible for loading to
 * RAM any sections that are required.
 */  

void alt_load (void)
{
    1010:	defffe04 	addi	sp,sp,-8
    1014:	dfc00115 	stw	ra,4(sp)
    1018:	df000015 	stw	fp,0(sp)
    101c:	d839883a 	mov	fp,sp
  /* 
   * Copy the .rwdata section. 
   */

  alt_load_section (&__flash_rwdata_start, 
    1020:	01000074 	movhi	r4,1
    1024:	213c2504 	addi	r4,r4,-3948
    1028:	01400074 	movhi	r5,1
    102c:	29758804 	addi	r5,r5,-10720
    1030:	01800074 	movhi	r6,1
    1034:	31bc2504 	addi	r6,r6,-3948
    1038:	0000fac0 	call	fac <alt_load_section>

  /*
   * Copy the exception handler.
   */

  alt_load_section (&__flash_exceptions_start, 
    103c:	01000034 	movhi	r4,0
    1040:	21000804 	addi	r4,r4,32
    1044:	01400034 	movhi	r5,0
    1048:	29400804 	addi	r5,r5,32
    104c:	01800034 	movhi	r6,0
    1050:	31809104 	addi	r6,r6,580
    1054:	0000fac0 	call	fac <alt_load_section>

  /*
   * Copy the .rodata section.
   */

  alt_load_section (&__flash_rodata_start, 
    1058:	01000074 	movhi	r4,1
    105c:	2134c904 	addi	r4,r4,-11484
    1060:	01400074 	movhi	r5,1
    1064:	2974c904 	addi	r5,r5,-11484
    1068:	01800074 	movhi	r6,1
    106c:	31b58804 	addi	r6,r6,-10720
    1070:	0000fac0 	call	fac <alt_load_section>
  
  /*
   * Now ensure that the caches are in synch.
   */
  
  alt_dcache_flush_all();
    1074:	000bb480 	call	bb48 <alt_dcache_flush_all>
  alt_icache_flush_all();
    1078:	000bdcc0 	call	bdcc <alt_icache_flush_all>
}
    107c:	e037883a 	mov	sp,fp
    1080:	dfc00117 	ldw	ra,4(sp)
    1084:	df000017 	ldw	fp,0(sp)
    1088:	dec00204 	addi	sp,sp,8
    108c:	f800283a 	ret

00001090 <alt_main>:
 * devices/filesystems/components in the system; and call the entry point for
 * the users application, i.e. main().
 */

void alt_main (void)
{
    1090:	defff904 	addi	sp,sp,-28
    1094:	dfc00615 	stw	ra,24(sp)
    1098:	df000515 	stw	fp,20(sp)
    109c:	df000504 	addi	fp,sp,20
#endif

  /* ALT LOG - please see HAL/sys/alt_log_printf.h for details */
  ALT_LOG_PRINT_BOOT("[alt_main.c] Entering alt_main, calling alt_irq_init.\r\n");
  /* Initialize the interrupt controller. */
  alt_irq_init (NULL);
    10a0:	0009883a 	mov	r4,zero
    10a4:	00091380 	call	9138 <alt_irq_init>

  /* Initialize the operating system */
  ALT_LOG_PRINT_BOOT("[alt_main.c] Done alt_irq_init, calling alt_os_init.\r\n");
  ALT_OS_INIT();
    10a8:	0001cdc0 	call	1cdc <OSInit>
    10ac:	01000044 	movi	r4,1
    10b0:	000684c0 	call	684c <OSSemCreate>
    10b4:	1007883a 	mov	r3,r2
    10b8:	00800074 	movhi	r2,1
    10bc:	1082c604 	addi	r2,r2,2840
    10c0:	10c00015 	stw	r3,0(r2)
    10c4:	01000044 	movi	r4,1
    10c8:	000684c0 	call	684c <OSSemCreate>
    10cc:	1007883a 	mov	r3,r2
    10d0:	00800074 	movhi	r2,1
    10d4:	1082c804 	addi	r2,r2,2848
    10d8:	10c00015 	stw	r3,0(r2)
    10dc:	00800074 	movhi	r2,1
    10e0:	1082dd04 	addi	r2,r2,2932
    10e4:	e0bffc15 	stw	r2,-16(fp)
    10e8:	00800044 	movi	r2,1
    10ec:	e0bffd0d 	sth	r2,-12(fp)
 */

static ALT_INLINE int ALT_ALWAYS_INLINE alt_sem_create (OS_EVENT** sem, 
              INT16U value)
{
  *sem = OSSemCreate (value);
    10f0:	e0bffd0b 	ldhu	r2,-12(fp)
    10f4:	1009883a 	mov	r4,r2
    10f8:	000684c0 	call	684c <OSSemCreate>
    10fc:	1007883a 	mov	r3,r2
    1100:	e0bffc17 	ldw	r2,-16(fp)
    1104:	10c00015 	stw	r3,0(r2)
  ALT_LOG_PRINT_BOOT("[alt_main.c] Done OS Init, calling alt_sem_create.\r\n");
  ALT_SEM_CREATE (&alt_fd_list_lock, 1);

  /* Initialize the device drivers/software components. */
  ALT_LOG_PRINT_BOOT("[alt_main.c] Calling alt_sys_init.\r\n");
  alt_sys_init();
    1108:	000916c0 	call	916c <alt_sys_init>
   * devices be present (not equal to /dev/null) and if direct drivers
   * aren't being used.
   */

    ALT_LOG_PRINT_BOOT("[alt_main.c] Redirecting IO.\r\n");
    alt_io_redirect(ALT_STDOUT, ALT_STDIN, ALT_STDERR);
    110c:	01000074 	movhi	r4,1
    1110:	2134cc04 	addi	r4,r4,-11472
    1114:	01400074 	movhi	r5,1
    1118:	2974cc04 	addi	r5,r5,-11472
    111c:	01800074 	movhi	r6,1
    1120:	31b4cc04 	addi	r6,r6,-11472
    1124:	000bebc0 	call	bebc <alt_io_redirect>
  /* 
   * Call the C++ constructors 
   */

  ALT_LOG_PRINT_BOOT("[alt_main.c] Calling C++ constructors.\r\n");
  _do_ctors ();
    1128:	000bc840 	call	bc84 <_do_ctors>
   * redefined as _exit()). This is in the interest of reducing code footprint,
   * in that the atexit() overhead is removed when it's not needed.
   */

  ALT_LOG_PRINT_BOOT("[alt_main.c] Calling atexit.\r\n");
  atexit (_do_dtors);
    112c:	01000074 	movhi	r4,1
    1130:	212f3804 	addi	r4,r4,-17184
    1134:	000cbe00 	call	cbe0 <atexit>
  ALT_LOG_PRINT_BOOT("[alt_main.c] Calling main.\r\n");

#ifdef ALT_NO_EXIT
  main (alt_argc, alt_argv, alt_envp);
#else
  result = main (alt_argc, alt_argv, alt_envp);
    1138:	d126cb17 	ldw	r4,-25812(gp)
    113c:	d0e6cc17 	ldw	r3,-25808(gp)
    1140:	d0a6cd17 	ldw	r2,-25804(gp)
    1144:	180b883a 	mov	r5,r3
    1148:	100d883a 	mov	r6,r2
    114c:	0000e980 	call	e98 <main>
    1150:	e0bffb15 	stw	r2,-20(fp)
  close(STDOUT_FILENO);
    1154:	01000044 	movi	r4,1
    1158:	000ba780 	call	ba78 <close>
  exit (result);
    115c:	e13ffb17 	ldw	r4,-20(fp)
    1160:	000cbf40 	call	cbf4 <exit>

00001164 <__env_lock>:
/*
 *
 */

void __env_lock ( struct _reent *_r )
{
    1164:	deffdf04 	addi	sp,sp,-132
    1168:	dfc02015 	stw	ra,128(sp)
    116c:	df001f15 	stw	fp,124(sp)
    1170:	df001f04 	addi	fp,sp,124
    1174:	e13fff15 	stw	r4,-4(fp)
  INT8U err;
  int id;

  /* use our priority as a task id */

  err = OSTaskQuery( OS_PRIO_SELF, &tcb );
    1178:	e0bfe204 	addi	r2,fp,-120
    117c:	01003fc4 	movi	r4,255
    1180:	100b883a 	mov	r5,r2
    1184:	0008a000 	call	8a00 <OSTaskQuery>
    1188:	e0bffe85 	stb	r2,-6(fp)
  if (err != OS_NO_ERR)
    118c:	e0bffe83 	ldbu	r2,-6(fp)
    1190:	10803fcc 	andi	r2,r2,255
    1194:	10000126 	beq	r2,zero,119c <__env_lock+0x38>
    return;
    1198:	00001d06 	br	1210 <__env_lock+0xac>

  id = tcb.OSTCBPrio;
    119c:	e0bfee83 	ldbu	r2,-70(fp)
    11a0:	10803fcc 	andi	r2,r2,255
    11a4:	e0bfe115 	stw	r2,-124(fp)
   
  /* see if we own the environment already */

  OSSemQuery( alt_envsem, &semdata );
    11a8:	d0e6cf17 	ldw	r3,-25796(gp)
    11ac:	e0bffd04 	addi	r2,fp,-12
    11b0:	1809883a 	mov	r4,r3
    11b4:	100b883a 	mov	r5,r2
    11b8:	00070980 	call	7098 <OSSemQuery>
  if( semdata.OSEventGrp && id == lockid ) 
    11bc:	e0bffe43 	ldbu	r2,-7(fp)
    11c0:	10803fcc 	andi	r2,r2,255
    11c4:	10000726 	beq	r2,zero,11e4 <__env_lock+0x80>
    11c8:	d0a00417 	ldw	r2,-32752(gp)
    11cc:	e0ffe117 	ldw	r3,-124(fp)
    11d0:	1880041e 	bne	r3,r2,11e4 <__env_lock+0x80>
  {
    /* we do; just count the recursion */

    locks++;
    11d4:	d0a6ce17 	ldw	r2,-25800(gp)
    11d8:	10800044 	addi	r2,r2,1
    11dc:	d0a6ce15 	stw	r2,-25800(gp)
    11e0:	00000a06 	br	120c <__env_lock+0xa8>
  }
  else 
  {
    /* wait on the other task to yield, then claim ownership */

    OSSemPend( alt_envsem, 0, &err );
    11e4:	d0e6cf17 	ldw	r3,-25796(gp)
    11e8:	e0bffe84 	addi	r2,fp,-6
    11ec:	1809883a 	mov	r4,r3
    11f0:	000b883a 	mov	r5,zero
    11f4:	100d883a 	mov	r6,r2
    11f8:	0006bb40 	call	6bb4 <OSSemPend>
    locks  = 1;
    11fc:	00800044 	movi	r2,1
    1200:	d0a6ce15 	stw	r2,-25800(gp)
    lockid = id;
    1204:	e0bfe117 	ldw	r2,-124(fp)
    1208:	d0a00415 	stw	r2,-32752(gp)
  }

#endif /* OS_THREAD_SAFE_NEWLIB */
  return;
    120c:	0001883a 	nop
}
    1210:	e037883a 	mov	sp,fp
    1214:	dfc00117 	ldw	ra,4(sp)
    1218:	df000017 	ldw	fp,0(sp)
    121c:	dec00204 	addi	sp,sp,8
    1220:	f800283a 	ret

00001224 <__env_unlock>:
/*
 *
 */

void __env_unlock ( struct _reent *_r )
{
    1224:	defffd04 	addi	sp,sp,-12
    1228:	dfc00215 	stw	ra,8(sp)
    122c:	df000115 	stw	fp,4(sp)
    1230:	df000104 	addi	fp,sp,4
    1234:	e13fff15 	stw	r4,-4(fp)
#if OS_THREAD_SAFE_NEWLIB
  if (locks == 0)
    1238:	d0a6ce17 	ldw	r2,-25800(gp)
    123c:	1000011e 	bne	r2,zero,1244 <__env_unlock+0x20>
    return;
    1240:	00000a06 	br	126c <__env_unlock+0x48>
   /* 
    * release the environment once the number of locks == the number 
    * of unlocks 
    */

  if( (--locks) == 0 ) 
    1244:	d0a6ce17 	ldw	r2,-25800(gp)
    1248:	10bfffc4 	addi	r2,r2,-1
    124c:	d0a6ce15 	stw	r2,-25800(gp)
    1250:	d0a6ce17 	ldw	r2,-25800(gp)
    1254:	1000051e 	bne	r2,zero,126c <__env_unlock+0x48>
  {
    lockid = -1;
    1258:	00bfffc4 	movi	r2,-1
    125c:	d0a00415 	stw	r2,-32752(gp)
    OSSemPost( alt_envsem );
    1260:	d0a6cf17 	ldw	r2,-25796(gp)
    1264:	1009883a 	mov	r4,r2
    1268:	0006f880 	call	6f88 <OSSemPost>
  }
#endif /* OS_THREAD_SAFE_NEWLIB */
}
    126c:	e037883a 	mov	sp,fp
    1270:	dfc00117 	ldw	ra,4(sp)
    1274:	df000017 	ldw	fp,0(sp)
    1278:	dec00204 	addi	sp,sp,8
    127c:	f800283a 	ret

00001280 <__malloc_lock>:
/*
 *
 */

void __malloc_lock ( struct _reent *_r )
{
    1280:	deffdb04 	addi	sp,sp,-148
    1284:	dfc02415 	stw	ra,144(sp)
    1288:	df002315 	stw	fp,140(sp)
    128c:	df002304 	addi	fp,sp,140
    1290:	e13fff15 	stw	r4,-4(fp)
  OS_TCB tcb;
  OS_SEM_DATA semdata;
  INT8U err;
  int id;
#if OS_CRITICAL_METHOD == 3                      /* Allocate storage for CPU status register           */
    OS_CPU_SR  cpu_sr = 0;
    1294:	e03fdd15 	stw	zero,-140(fp)
#endif  
  
  if (OSRunning != OS_TRUE)
    1298:	00800074 	movhi	r2,1
    129c:	1082c944 	addi	r2,r2,2853
    12a0:	10800003 	ldbu	r2,0(r2)
    12a4:	10803fcc 	andi	r2,r2,255
    12a8:	10800060 	cmpeqi	r2,r2,1
    12ac:	1000011e 	bne	r2,zero,12b4 <__malloc_lock+0x34>
      return;
    12b0:	00003606 	br	138c <__malloc_lock+0x10c>

  /* use our priority as a task id */

  err = OSTaskQuery( OS_PRIO_SELF, &tcb );
    12b4:	e0bfe204 	addi	r2,fp,-120
    12b8:	01003fc4 	movi	r4,255
    12bc:	100b883a 	mov	r5,r2
    12c0:	0008a000 	call	8a00 <OSTaskQuery>
    12c4:	e0bffe85 	stb	r2,-6(fp)
  if (err != OS_NO_ERR)
    12c8:	e0bffe83 	ldbu	r2,-6(fp)
    12cc:	10803fcc 	andi	r2,r2,255
    12d0:	10000126 	beq	r2,zero,12d8 <__malloc_lock+0x58>
    return;
    12d4:	00002d06 	br	138c <__malloc_lock+0x10c>

  id = tcb.OSTCBPrio;
    12d8:	e0bfee83 	ldbu	r2,-70(fp)
    12dc:	10803fcc 	andi	r2,r2,255
    12e0:	e0bfde15 	stw	r2,-136(fp)
   
  /* see if we own the heap already */

  OSSemQuery( alt_heapsem, &semdata );
    12e4:	d0e6d117 	ldw	r3,-25788(gp)
    12e8:	e0bffd04 	addi	r2,fp,-12
    12ec:	1809883a 	mov	r4,r3
    12f0:	100b883a 	mov	r5,r2
    12f4:	00070980 	call	7098 <OSSemQuery>
static ALT_INLINE alt_irq_context ALT_ALWAYS_INLINE 
       alt_irq_disable_all (void)
{
  alt_irq_context context;

  NIOS2_READ_STATUS (context);
    12f8:	0005303a 	rdctl	r2,status
    12fc:	e0bfdf15 	stw	r2,-132(fp)

  NIOS2_WRITE_STATUS (context & ~NIOS2_STATUS_PIE_MSK);
    1300:	e0ffdf17 	ldw	r3,-132(fp)
    1304:	00bfff84 	movi	r2,-2
    1308:	1884703a 	and	r2,r3,r2
    130c:	1001703a 	wrctl	status,r2
  
  return context;
    1310:	e0bfdf17 	ldw	r2,-132(fp)
  
  OS_ENTER_CRITICAL();
    1314:	e0bfdd15 	stw	r2,-140(fp)

  if( !semdata.OSCnt && id == lockid ) 
    1318:	e0bffd0b 	ldhu	r2,-12(fp)
    131c:	10bfffcc 	andi	r2,r2,65535
    1320:	10000b1e 	bne	r2,zero,1350 <__malloc_lock+0xd0>
    1324:	d0a00517 	ldw	r2,-32748(gp)
    1328:	e0ffde17 	ldw	r3,-136(fp)
    132c:	1880081e 	bne	r3,r2,1350 <__malloc_lock+0xd0>
  {
    /* we do; just count the recursion */
    locks++;
    1330:	d0a6d017 	ldw	r2,-25792(gp)
    1334:	10800044 	addi	r2,r2,1
    1338:	d0a6d015 	stw	r2,-25792(gp)
    133c:	e0bfdd17 	ldw	r2,-140(fp)
    1340:	e0bfe015 	stw	r2,-128(fp)
  status &= ~NIOS2_STATUS_PIE_MSK;
  status |= (context & NIOS2_STATUS_PIE_MSK);
  
  NIOS2_WRITE_STATUS (status);
#else
  NIOS2_WRITE_STATUS (context);
    1344:	e0bfe017 	ldw	r2,-128(fp)
    1348:	1001703a 	wrctl	status,r2
    OS_EXIT_CRITICAL();
    134c:	00000e06 	br	1388 <__malloc_lock+0x108>
    1350:	e0bfdd17 	ldw	r2,-140(fp)
    1354:	e0bfe115 	stw	r2,-124(fp)
    1358:	e0bfe117 	ldw	r2,-124(fp)
    135c:	1001703a 	wrctl	status,r2
  else 
  {
    /* wait on the other task to yield the heap, then claim ownership of it */
    OS_EXIT_CRITICAL();

    OSSemPend( alt_heapsem, 0, &err );
    1360:	d0e6d117 	ldw	r3,-25788(gp)
    1364:	e0bffe84 	addi	r2,fp,-6
    1368:	1809883a 	mov	r4,r3
    136c:	000b883a 	mov	r5,zero
    1370:	100d883a 	mov	r6,r2
    1374:	0006bb40 	call	6bb4 <OSSemPend>
    locks  = 1;
    1378:	00800044 	movi	r2,1
    137c:	d0a6d015 	stw	r2,-25792(gp)
    lockid = id;
    1380:	e0bfde17 	ldw	r2,-136(fp)
    1384:	d0a00515 	stw	r2,-32748(gp)
  }

#endif /* OS_THREAD_SAFE_NEWLIB */
  return;
    1388:	0001883a 	nop
}
    138c:	e037883a 	mov	sp,fp
    1390:	dfc00117 	ldw	ra,4(sp)
    1394:	df000017 	ldw	fp,0(sp)
    1398:	dec00204 	addi	sp,sp,8
    139c:	f800283a 	ret

000013a0 <__malloc_unlock>:
/*
 *
 */

void __malloc_unlock ( struct _reent *_r )
{
    13a0:	defff804 	addi	sp,sp,-32
    13a4:	dfc00715 	stw	ra,28(sp)
    13a8:	df000615 	stw	fp,24(sp)
    13ac:	df000604 	addi	fp,sp,24
    13b0:	e13fff15 	stw	r4,-4(fp)
#if OS_THREAD_SAFE_NEWLIB

#if OS_CRITICAL_METHOD == 3                      /* Allocate storage for CPU status register           */
    OS_CPU_SR  cpu_sr = 0;
    13b4:	e03ffa15 	stw	zero,-24(fp)
#endif 

  if (OSRunning != OS_TRUE)
    13b8:	00800074 	movhi	r2,1
    13bc:	1082c944 	addi	r2,r2,2853
    13c0:	10800003 	ldbu	r2,0(r2)
    13c4:	10803fcc 	andi	r2,r2,255
    13c8:	10800060 	cmpeqi	r2,r2,1
    13cc:	1000011e 	bne	r2,zero,13d4 <__malloc_unlock+0x34>
      return;
    13d0:	00002206 	br	145c <__malloc_unlock+0xbc>
static ALT_INLINE alt_irq_context ALT_ALWAYS_INLINE 
       alt_irq_disable_all (void)
{
  alt_irq_context context;

  NIOS2_READ_STATUS (context);
    13d4:	0005303a 	rdctl	r2,status
    13d8:	e0bffb15 	stw	r2,-20(fp)

  NIOS2_WRITE_STATUS (context & ~NIOS2_STATUS_PIE_MSK);
    13dc:	e0fffb17 	ldw	r3,-20(fp)
    13e0:	00bfff84 	movi	r2,-2
    13e4:	1884703a 	and	r2,r3,r2
    13e8:	1001703a 	wrctl	status,r2
  
  return context;
    13ec:	e0bffb17 	ldw	r2,-20(fp)

  OS_ENTER_CRITICAL();
    13f0:	e0bffa15 	stw	r2,-24(fp)
  if (locks == 0)
    13f4:	d0a6d017 	ldw	r2,-25792(gp)
    13f8:	1000051e 	bne	r2,zero,1410 <__malloc_unlock+0x70>
    13fc:	e0bffa17 	ldw	r2,-24(fp)
    1400:	e0bffc15 	stw	r2,-16(fp)
  status &= ~NIOS2_STATUS_PIE_MSK;
  status |= (context & NIOS2_STATUS_PIE_MSK);
  
  NIOS2_WRITE_STATUS (status);
#else
  NIOS2_WRITE_STATUS (context);
    1404:	e0bffc17 	ldw	r2,-16(fp)
    1408:	1001703a 	wrctl	status,r2
  {
      OS_EXIT_CRITICAL();
      return;
    140c:	00001306 	br	145c <__malloc_unlock+0xbc>
  }

  /* release the heap once the number of locks == the number of unlocks */
  if( (--locks) == 0 ) 
    1410:	d0a6d017 	ldw	r2,-25792(gp)
    1414:	10bfffc4 	addi	r2,r2,-1
    1418:	d0a6d015 	stw	r2,-25792(gp)
    141c:	d0a6d017 	ldw	r2,-25792(gp)
    1420:	10000a1e 	bne	r2,zero,144c <__malloc_unlock+0xac>
  {
    lockid = -1;
    1424:	00bfffc4 	movi	r2,-1
    1428:	d0a00515 	stw	r2,-32748(gp)
    142c:	e0bffa17 	ldw	r2,-24(fp)
    1430:	e0bffd15 	stw	r2,-12(fp)
    1434:	e0bffd17 	ldw	r2,-12(fp)
    1438:	1001703a 	wrctl	status,r2
    OS_EXIT_CRITICAL();
    OSSemPost( alt_heapsem );
    143c:	d0a6d117 	ldw	r2,-25788(gp)
    1440:	1009883a 	mov	r4,r2
    1444:	0006f880 	call	6f88 <OSSemPost>
    1448:	00000406 	br	145c <__malloc_unlock+0xbc>
    144c:	e0bffa17 	ldw	r2,-24(fp)
    1450:	e0bffe15 	stw	r2,-8(fp)
    1454:	e0bffe17 	ldw	r2,-8(fp)
    1458:	1001703a 	wrctl	status,r2
  {
      OS_EXIT_CRITICAL();
  }
  
#endif /* OS_THREAD_SAFE_NEWLIB */
}
    145c:	e037883a 	mov	sp,fp
    1460:	dfc00117 	ldw	ra,4(sp)
    1464:	df000017 	ldw	fp,0(sp)
    1468:	dec00204 	addi	sp,sp,8
    146c:	f800283a 	ret

00001470 <OSEventNameGet>:
*********************************************************************************************************
*/

#if (OS_EVENT_EN) && (OS_EVENT_NAME_SIZE > 1)
INT8U  OSEventNameGet (OS_EVENT *pevent, INT8U *pname, INT8U *perr)
{
    1470:	defff704 	addi	sp,sp,-36
    1474:	dfc00815 	stw	ra,32(sp)
    1478:	df000715 	stw	fp,28(sp)
    147c:	df000704 	addi	fp,sp,28
    1480:	e13ffd15 	stw	r4,-12(fp)
    1484:	e17ffe15 	stw	r5,-8(fp)
    1488:	e1bfff15 	stw	r6,-4(fp)
    INT8U      len;
#if OS_CRITICAL_METHOD == 3                      /* Allocate storage for CPU status register           */
    OS_CPU_SR  cpu_sr = 0;
    148c:	e03ff915 	stw	zero,-28(fp)
#endif



#if OS_ARG_CHK_EN > 0
    if (perr == (INT8U *)0) {                    /* Validate 'perr'                                    */
    1490:	e0bfff17 	ldw	r2,-4(fp)
    1494:	1000021e 	bne	r2,zero,14a0 <OSEventNameGet+0x30>
        return (0);
    1498:	0005883a 	mov	r2,zero
    149c:	00003706 	br	157c <OSEventNameGet+0x10c>
    }
    if (pevent == (OS_EVENT *)0) {               /* Is 'pevent' a NULL pointer?                        */
    14a0:	e0bffd17 	ldw	r2,-12(fp)
    14a4:	1000051e 	bne	r2,zero,14bc <OSEventNameGet+0x4c>
        *perr = OS_ERR_PEVENT_NULL;
    14a8:	e0bfff17 	ldw	r2,-4(fp)
    14ac:	00c00104 	movi	r3,4
    14b0:	10c00005 	stb	r3,0(r2)
        return (0);
    14b4:	0005883a 	mov	r2,zero
    14b8:	00003006 	br	157c <OSEventNameGet+0x10c>
    }
    if (pname == (INT8U *)0) {                   /* Is 'pname' a NULL pointer?                         */
    14bc:	e0bffe17 	ldw	r2,-8(fp)
    14c0:	1000051e 	bne	r2,zero,14d8 <OSEventNameGet+0x68>
        *perr = OS_ERR_PNAME_NULL;
    14c4:	e0bfff17 	ldw	r2,-4(fp)
    14c8:	00c00304 	movi	r3,12
    14cc:	10c00005 	stb	r3,0(r2)
        return (0);
    14d0:	0005883a 	mov	r2,zero
    14d4:	00002906 	br	157c <OSEventNameGet+0x10c>
    }
#endif
    if (OSIntNesting > 0) {                      /* See if trying to call from an ISR                  */
    14d8:	d0a6e003 	ldbu	r2,-25728(gp)
    14dc:	10803fcc 	andi	r2,r2,255
    14e0:	10000526 	beq	r2,zero,14f8 <OSEventNameGet+0x88>
        *perr  = OS_ERR_NAME_GET_ISR;
    14e4:	e0bfff17 	ldw	r2,-4(fp)
    14e8:	00c00444 	movi	r3,17
    14ec:	10c00005 	stb	r3,0(r2)
        return (0);
    14f0:	0005883a 	mov	r2,zero
    14f4:	00002106 	br	157c <OSEventNameGet+0x10c>
    }
    switch (pevent->OSEventType) {
    14f8:	e0bffd17 	ldw	r2,-12(fp)
    14fc:	10800003 	ldbu	r2,0(r2)
    1500:	10803fcc 	andi	r2,r2,255
    1504:	10bfffc4 	addi	r2,r2,-1
    1508:	10800128 	cmpgeui	r2,r2,4
    150c:	10000526 	beq	r2,zero,1524 <OSEventNameGet+0xb4>
        case OS_EVENT_TYPE_MBOX:
        case OS_EVENT_TYPE_Q:
             break;

        default:
             *perr = OS_ERR_EVENT_TYPE;
    1510:	e0bfff17 	ldw	r2,-4(fp)
    1514:	00c00044 	movi	r3,1
    1518:	10c00005 	stb	r3,0(r2)
             return (0);
    151c:	0005883a 	mov	r2,zero
    1520:	00001606 	br	157c <OSEventNameGet+0x10c>
    switch (pevent->OSEventType) {
        case OS_EVENT_TYPE_SEM:
        case OS_EVENT_TYPE_MUTEX:
        case OS_EVENT_TYPE_MBOX:
        case OS_EVENT_TYPE_Q:
             break;
    1524:	0001883a 	nop
static ALT_INLINE alt_irq_context ALT_ALWAYS_INLINE 
       alt_irq_disable_all (void)
{
  alt_irq_context context;

  NIOS2_READ_STATUS (context);
    1528:	0005303a 	rdctl	r2,status
    152c:	e0bffb15 	stw	r2,-20(fp)

  NIOS2_WRITE_STATUS (context & ~NIOS2_STATUS_PIE_MSK);
    1530:	e0fffb17 	ldw	r3,-20(fp)
    1534:	00bfff84 	movi	r2,-2
    1538:	1884703a 	and	r2,r3,r2
    153c:	1001703a 	wrctl	status,r2
  
  return context;
    1540:	e0bffb17 	ldw	r2,-20(fp)

        default:
             *perr = OS_ERR_EVENT_TYPE;
             return (0);
    }
    OS_ENTER_CRITICAL();
    1544:	e0bff915 	stw	r2,-28(fp)
    len   = OS_StrCopy(pname, pevent->OSEventName);   /* Copy name from OS_EVENT                       */
    1548:	e0bffd17 	ldw	r2,-12(fp)
    154c:	10800384 	addi	r2,r2,14
    1550:	e13ffe17 	ldw	r4,-8(fp)
    1554:	100b883a 	mov	r5,r2
    1558:	0002ec40 	call	2ec4 <OS_StrCopy>
    155c:	e0bffa05 	stb	r2,-24(fp)
    1560:	e0bff917 	ldw	r2,-28(fp)
    1564:	e0bffc15 	stw	r2,-16(fp)
  status &= ~NIOS2_STATUS_PIE_MSK;
  status |= (context & NIOS2_STATUS_PIE_MSK);
  
  NIOS2_WRITE_STATUS (status);
#else
  NIOS2_WRITE_STATUS (context);
    1568:	e0bffc17 	ldw	r2,-16(fp)
    156c:	1001703a 	wrctl	status,r2
    OS_EXIT_CRITICAL();
    *perr = OS_ERR_NONE;
    1570:	e0bfff17 	ldw	r2,-4(fp)
    1574:	10000005 	stb	zero,0(r2)
    return (len);
    1578:	e0bffa03 	ldbu	r2,-24(fp)
}
    157c:	e037883a 	mov	sp,fp
    1580:	dfc00117 	ldw	ra,4(sp)
    1584:	df000017 	ldw	fp,0(sp)
    1588:	dec00204 	addi	sp,sp,8
    158c:	f800283a 	ret

00001590 <OSEventNameSet>:
*********************************************************************************************************
*/

#if (OS_EVENT_EN) && (OS_EVENT_NAME_SIZE > 1)
void  OSEventNameSet (OS_EVENT *pevent, INT8U *pname, INT8U *perr)
{
    1590:	defff604 	addi	sp,sp,-40
    1594:	dfc00915 	stw	ra,36(sp)
    1598:	df000815 	stw	fp,32(sp)
    159c:	df000804 	addi	fp,sp,32
    15a0:	e13ffd15 	stw	r4,-12(fp)
    15a4:	e17ffe15 	stw	r5,-8(fp)
    15a8:	e1bfff15 	stw	r6,-4(fp)
    INT8U      len;
#if OS_CRITICAL_METHOD == 3                      /* Allocate storage for CPU status register           */
    OS_CPU_SR  cpu_sr = 0;
    15ac:	e03ff815 	stw	zero,-32(fp)
#endif



#if OS_ARG_CHK_EN > 0
    if (perr == (INT8U *)0) {                    /* Validate 'perr'                                    */
    15b0:	e0bfff17 	ldw	r2,-4(fp)
    15b4:	1000011e 	bne	r2,zero,15bc <OSEventNameSet+0x2c>
        return;
    15b8:	00003f06 	br	16b8 <OSEventNameSet+0x128>
    }
    if (pevent == (OS_EVENT *)0) {               /* Is 'pevent' a NULL pointer?                        */
    15bc:	e0bffd17 	ldw	r2,-12(fp)
    15c0:	1000041e 	bne	r2,zero,15d4 <OSEventNameSet+0x44>
        *perr = OS_ERR_PEVENT_NULL;
    15c4:	e0bfff17 	ldw	r2,-4(fp)
    15c8:	00c00104 	movi	r3,4
    15cc:	10c00005 	stb	r3,0(r2)
        return;
    15d0:	00003906 	br	16b8 <OSEventNameSet+0x128>
    }
    if (pname == (INT8U *)0) {                   /* Is 'pname' a NULL pointer?                         */
    15d4:	e0bffe17 	ldw	r2,-8(fp)
    15d8:	1000041e 	bne	r2,zero,15ec <OSEventNameSet+0x5c>
        *perr = OS_ERR_PNAME_NULL;
    15dc:	e0bfff17 	ldw	r2,-4(fp)
    15e0:	00c00304 	movi	r3,12
    15e4:	10c00005 	stb	r3,0(r2)
        return;
    15e8:	00003306 	br	16b8 <OSEventNameSet+0x128>
    }
#endif
    if (OSIntNesting > 0) {                      /* See if trying to call from an ISR                  */
    15ec:	d0a6e003 	ldbu	r2,-25728(gp)
    15f0:	10803fcc 	andi	r2,r2,255
    15f4:	10000426 	beq	r2,zero,1608 <OSEventNameSet+0x78>
        *perr = OS_ERR_NAME_SET_ISR;
    15f8:	e0bfff17 	ldw	r2,-4(fp)
    15fc:	00c00484 	movi	r3,18
    1600:	10c00005 	stb	r3,0(r2)
        return;
    1604:	00002c06 	br	16b8 <OSEventNameSet+0x128>
    }
    switch (pevent->OSEventType) {
    1608:	e0bffd17 	ldw	r2,-12(fp)
    160c:	10800003 	ldbu	r2,0(r2)
    1610:	10803fcc 	andi	r2,r2,255
    1614:	10bfffc4 	addi	r2,r2,-1
    1618:	10800128 	cmpgeui	r2,r2,4
    161c:	10000426 	beq	r2,zero,1630 <OSEventNameSet+0xa0>
        case OS_EVENT_TYPE_MBOX:
        case OS_EVENT_TYPE_Q:
             break;

        default:
             *perr = OS_ERR_EVENT_TYPE;
    1620:	e0bfff17 	ldw	r2,-4(fp)
    1624:	00c00044 	movi	r3,1
    1628:	10c00005 	stb	r3,0(r2)
             return;
    162c:	00002206 	br	16b8 <OSEventNameSet+0x128>
    switch (pevent->OSEventType) {
        case OS_EVENT_TYPE_SEM:
        case OS_EVENT_TYPE_MUTEX:
        case OS_EVENT_TYPE_MBOX:
        case OS_EVENT_TYPE_Q:
             break;
    1630:	0001883a 	nop
static ALT_INLINE alt_irq_context ALT_ALWAYS_INLINE 
       alt_irq_disable_all (void)
{
  alt_irq_context context;

  NIOS2_READ_STATUS (context);
    1634:	0005303a 	rdctl	r2,status
    1638:	e0bffa15 	stw	r2,-24(fp)

  NIOS2_WRITE_STATUS (context & ~NIOS2_STATUS_PIE_MSK);
    163c:	e0fffa17 	ldw	r3,-24(fp)
    1640:	00bfff84 	movi	r2,-2
    1644:	1884703a 	and	r2,r3,r2
    1648:	1001703a 	wrctl	status,r2
  
  return context;
    164c:	e0bffa17 	ldw	r2,-24(fp)

        default:
             *perr = OS_ERR_EVENT_TYPE;
             return;
    }
    OS_ENTER_CRITICAL();
    1650:	e0bff815 	stw	r2,-32(fp)
    len = OS_StrLen(pname);                           /* Can we fit the string in the storage area?    */
    1654:	e13ffe17 	ldw	r4,-8(fp)
    1658:	0002f380 	call	2f38 <OS_StrLen>
    165c:	e0bff905 	stb	r2,-28(fp)
    if (len > (OS_EVENT_NAME_SIZE - 1)) {             /* No                                            */
    1660:	e0bff903 	ldbu	r2,-28(fp)
    1664:	10800830 	cmpltui	r2,r2,32
    1668:	1000081e 	bne	r2,zero,168c <OSEventNameSet+0xfc>
    166c:	e0bff817 	ldw	r2,-32(fp)
    1670:	e0bffb15 	stw	r2,-20(fp)
  status &= ~NIOS2_STATUS_PIE_MSK;
  status |= (context & NIOS2_STATUS_PIE_MSK);
  
  NIOS2_WRITE_STATUS (status);
#else
  NIOS2_WRITE_STATUS (context);
    1674:	e0bffb17 	ldw	r2,-20(fp)
    1678:	1001703a 	wrctl	status,r2
        OS_EXIT_CRITICAL();
        *perr = OS_ERR_EVENT_NAME_TOO_LONG;
    167c:	e0bfff17 	ldw	r2,-4(fp)
    1680:	00c002c4 	movi	r3,11
    1684:	10c00005 	stb	r3,0(r2)
        return;
    1688:	00000b06 	br	16b8 <OSEventNameSet+0x128>
    }
    (void)OS_StrCopy(pevent->OSEventName, pname);     /* Yes, copy name to the event control block     */
    168c:	e0bffd17 	ldw	r2,-12(fp)
    1690:	10800384 	addi	r2,r2,14
    1694:	1009883a 	mov	r4,r2
    1698:	e17ffe17 	ldw	r5,-8(fp)
    169c:	0002ec40 	call	2ec4 <OS_StrCopy>
    16a0:	e0bff817 	ldw	r2,-32(fp)
    16a4:	e0bffc15 	stw	r2,-16(fp)
    16a8:	e0bffc17 	ldw	r2,-16(fp)
    16ac:	1001703a 	wrctl	status,r2
    OS_EXIT_CRITICAL();
    *perr = OS_ERR_NONE;
    16b0:	e0bfff17 	ldw	r2,-4(fp)
    16b4:	10000005 	stb	zero,0(r2)
}
    16b8:	e037883a 	mov	sp,fp
    16bc:	dfc00117 	ldw	ra,4(sp)
    16c0:	df000017 	ldw	fp,0(sp)
    16c4:	dec00204 	addi	sp,sp,8
    16c8:	f800283a 	ret

000016cc <OSEventPendMulti>:
*********************************************************************************************************
*/
/*$PAGE*/
#if ((OS_EVENT_EN) && (OS_EVENT_MULTI_EN > 0))
INT16U  OSEventPendMulti (OS_EVENT **pevents_pend, OS_EVENT **pevents_rdy, void **pmsgs_rdy, INT16U timeout, INT8U *perr)
{
    16cc:	deffed04 	addi	sp,sp,-76
    16d0:	dfc01215 	stw	ra,72(sp)
    16d4:	df001115 	stw	fp,68(sp)
    16d8:	df001104 	addi	fp,sp,68
    16dc:	e13ffc15 	stw	r4,-16(fp)
    16e0:	e17ffd15 	stw	r5,-12(fp)
    16e4:	e1bffe15 	stw	r6,-8(fp)
    16e8:	3805883a 	mov	r2,r7
    16ec:	e0bfff0d 	sth	r2,-4(fp)
#endif
    BOOLEAN     events_rdy;
    INT16U      events_rdy_nbr;
    INT8U       events_stat;
#if (OS_CRITICAL_METHOD == 3)                           /* Allocate storage for CPU status register    */
    OS_CPU_SR   cpu_sr = 0;
    16f0:	e03ff315 	stw	zero,-52(fp)
#endif



#if (OS_ARG_CHK_EN > 0)
    if (perr == (INT8U *)0) {                           /* Validate 'perr'                             */
    16f4:	e0800217 	ldw	r2,8(fp)
    16f8:	1000021e 	bne	r2,zero,1704 <OSEventPendMulti+0x38>
        return (0);
    16fc:	0005883a 	mov	r2,zero
    1700:	00017106 	br	1cc8 <OSEventPendMulti+0x5fc>
    }
    if (pevents_pend == (OS_EVENT **)0) {               /* Validate 'pevents_pend'                     */
    1704:	e0bffc17 	ldw	r2,-16(fp)
    1708:	1000051e 	bne	r2,zero,1720 <OSEventPendMulti+0x54>
       *perr =  OS_ERR_PEVENT_NULL;
    170c:	e0800217 	ldw	r2,8(fp)
    1710:	00c00104 	movi	r3,4
    1714:	10c00005 	stb	r3,0(r2)
        return (0);
    1718:	0005883a 	mov	r2,zero
    171c:	00016a06 	br	1cc8 <OSEventPendMulti+0x5fc>
    }
    if (pevents_rdy  == (OS_EVENT **)0) {               /* Validate 'pevents_rdy'                      */
    1720:	e0bffd17 	ldw	r2,-12(fp)
    1724:	1000051e 	bne	r2,zero,173c <OSEventPendMulti+0x70>
       *perr =  OS_ERR_PEVENT_NULL;
    1728:	e0800217 	ldw	r2,8(fp)
    172c:	00c00104 	movi	r3,4
    1730:	10c00005 	stb	r3,0(r2)
        return (0);
    1734:	0005883a 	mov	r2,zero
    1738:	00016306 	br	1cc8 <OSEventPendMulti+0x5fc>
    }
    if (pmsgs_rdy == (void **)0) {                      /* Validate 'pmsgs_rdy'                        */
    173c:	e0bffe17 	ldw	r2,-8(fp)
    1740:	1000051e 	bne	r2,zero,1758 <OSEventPendMulti+0x8c>
       *perr =  OS_ERR_PEVENT_NULL;
    1744:	e0800217 	ldw	r2,8(fp)
    1748:	00c00104 	movi	r3,4
    174c:	10c00005 	stb	r3,0(r2)
        return (0);
    1750:	0005883a 	mov	r2,zero
    1754:	00015c06 	br	1cc8 <OSEventPendMulti+0x5fc>
    }
#endif

   *pevents_rdy = (OS_EVENT *)0;                        /* Init array to NULL in case of errors        */
    1758:	e0bffd17 	ldw	r2,-12(fp)
    175c:	10000015 	stw	zero,0(r2)

    pevents     =  pevents_pend;
    1760:	e0bffc17 	ldw	r2,-16(fp)
    1764:	e0bfef15 	stw	r2,-68(fp)
    pevent      = *pevents;
    1768:	e0bfef17 	ldw	r2,-68(fp)
    176c:	10800017 	ldw	r2,0(r2)
    1770:	e0bff015 	stw	r2,-64(fp)
    while  (pevent != (OS_EVENT *)0) {
    1774:	00001906 	br	17dc <OSEventPendMulti+0x110>
        switch (pevent->OSEventType) {                  /* Validate event block types                  */
    1778:	e0bff017 	ldw	r2,-64(fp)
    177c:	10800003 	ldbu	r2,0(r2)
    1780:	10803fcc 	andi	r2,r2,255
    1784:	10c000a0 	cmpeqi	r3,r2,2
    1788:	1800091e 	bne	r3,zero,17b0 <OSEventPendMulti+0xe4>
    178c:	10c000e0 	cmpeqi	r3,r2,3
    1790:	1800091e 	bne	r3,zero,17b8 <OSEventPendMulti+0xec>
    1794:	10800060 	cmpeqi	r2,r2,1
    1798:	1000091e 	bne	r2,zero,17c0 <OSEventPendMulti+0xf4>
#endif

            case OS_EVENT_TYPE_MUTEX:                                            
            case OS_EVENT_TYPE_FLAG:
            default:           
                *perr = OS_ERR_EVENT_TYPE;
    179c:	e0800217 	ldw	r2,8(fp)
    17a0:	00c00044 	movi	r3,1
    17a4:	10c00005 	stb	r3,0(r2)
                 return (0);
    17a8:	0005883a 	mov	r2,zero
    17ac:	00014606 	br	1cc8 <OSEventPendMulti+0x5fc>
            case OS_EVENT_TYPE_MBOX:
                 break;
#endif
#if ((OS_Q_EN   > 0) && (OS_MAX_QS > 0))
            case OS_EVENT_TYPE_Q:
                 break;
    17b0:	0001883a 	nop
    17b4:	00000306 	br	17c4 <OSEventPendMulti+0xf8>
    pevent      = *pevents;
    while  (pevent != (OS_EVENT *)0) {
        switch (pevent->OSEventType) {                  /* Validate event block types                  */
#if (OS_SEM_EN  > 0)
            case OS_EVENT_TYPE_SEM:
                 break;
    17b8:	0001883a 	nop
    17bc:	00000106 	br	17c4 <OSEventPendMulti+0xf8>
#endif
#if (OS_MBOX_EN > 0)
            case OS_EVENT_TYPE_MBOX:
                 break;
    17c0:	0001883a 	nop
            case OS_EVENT_TYPE_FLAG:
            default:           
                *perr = OS_ERR_EVENT_TYPE;
                 return (0);
        }
        pevents++;
    17c4:	e0bfef17 	ldw	r2,-68(fp)
    17c8:	10800104 	addi	r2,r2,4
    17cc:	e0bfef15 	stw	r2,-68(fp)
        pevent = *pevents;
    17d0:	e0bfef17 	ldw	r2,-68(fp)
    17d4:	10800017 	ldw	r2,0(r2)
    17d8:	e0bff015 	stw	r2,-64(fp)

   *pevents_rdy = (OS_EVENT *)0;                        /* Init array to NULL in case of errors        */

    pevents     =  pevents_pend;
    pevent      = *pevents;
    while  (pevent != (OS_EVENT *)0) {
    17dc:	e0bff017 	ldw	r2,-64(fp)
    17e0:	103fe51e 	bne	r2,zero,1778 <OSEventPendMulti+0xac>
        }
        pevents++;
        pevent = *pevents;
    }

    if (OSIntNesting  > 0) {                            /* See if called from ISR ...                  */
    17e4:	d0a6e003 	ldbu	r2,-25728(gp)
    17e8:	10803fcc 	andi	r2,r2,255
    17ec:	10000526 	beq	r2,zero,1804 <OSEventPendMulti+0x138>
       *perr =  OS_ERR_PEND_ISR;                        /* ... can't PEND from an ISR                  */
    17f0:	e0800217 	ldw	r2,8(fp)
    17f4:	00c00084 	movi	r3,2
    17f8:	10c00005 	stb	r3,0(r2)
        return (0);
    17fc:	0005883a 	mov	r2,zero
    1800:	00013106 	br	1cc8 <OSEventPendMulti+0x5fc>
    }
    if (OSLockNesting > 0) {                            /* See if called with scheduler locked ...     */
    1804:	d0a6d203 	ldbu	r2,-25784(gp)
    1808:	10803fcc 	andi	r2,r2,255
    180c:	10000526 	beq	r2,zero,1824 <OSEventPendMulti+0x158>
       *perr =  OS_ERR_PEND_LOCKED;                     /* ... can't PEND when locked                  */
    1810:	e0800217 	ldw	r2,8(fp)
    1814:	00c00344 	movi	r3,13
    1818:	10c00005 	stb	r3,0(r2)
        return (0);
    181c:	0005883a 	mov	r2,zero
    1820:	00012906 	br	1cc8 <OSEventPendMulti+0x5fc>
static ALT_INLINE alt_irq_context ALT_ALWAYS_INLINE 
       alt_irq_disable_all (void)
{
  alt_irq_context context;

  NIOS2_READ_STATUS (context);
    1824:	0005303a 	rdctl	r2,status
    1828:	e0bff515 	stw	r2,-44(fp)

  NIOS2_WRITE_STATUS (context & ~NIOS2_STATUS_PIE_MSK);
    182c:	e0fff517 	ldw	r3,-44(fp)
    1830:	00bfff84 	movi	r2,-2
    1834:	1884703a 	and	r2,r3,r2
    1838:	1001703a 	wrctl	status,r2
  
  return context;
    183c:	e0bff517 	ldw	r2,-44(fp)
    }

/*$PAGE*/
    OS_ENTER_CRITICAL();
    1840:	e0bff315 	stw	r2,-52(fp)
    events_rdy     =  OS_FALSE;
    1844:	e03ff105 	stb	zero,-60(fp)
    events_rdy_nbr =  0;
    1848:	e03ff18d 	sth	zero,-58(fp)
    events_stat    =  OS_STAT_RDY;
    184c:	e03ff205 	stb	zero,-56(fp)
    pevents        =  pevents_pend;
    1850:	e0bffc17 	ldw	r2,-16(fp)
    1854:	e0bfef15 	stw	r2,-68(fp)
    pevent         = *pevents;
    1858:	e0bfef17 	ldw	r2,-68(fp)
    185c:	10800017 	ldw	r2,0(r2)
    1860:	e0bff015 	stw	r2,-64(fp)
    while (pevent != (OS_EVENT *)0) {                   /* See if any events already available         */
    1864:	00008106 	br	1a6c <OSEventPendMulti+0x3a0>
        switch (pevent->OSEventType) {
    1868:	e0bff017 	ldw	r2,-64(fp)
    186c:	10800003 	ldbu	r2,0(r2)
    1870:	10803fcc 	andi	r2,r2,255
    1874:	10c000a0 	cmpeqi	r3,r2,2
    1878:	18003c1e 	bne	r3,zero,196c <OSEventPendMulti+0x2a0>
    187c:	10c000e0 	cmpeqi	r3,r2,3
    1880:	1800031e 	bne	r3,zero,1890 <OSEventPendMulti+0x1c4>
    1884:	10800060 	cmpeqi	r2,r2,1
    1888:	10001e1e 	bne	r2,zero,1904 <OSEventPendMulti+0x238>
    188c:	00006606 	br	1a28 <OSEventPendMulti+0x35c>
#if (OS_SEM_EN > 0)
            case OS_EVENT_TYPE_SEM:
                 if (pevent->OSEventCnt > 0) {          /* If semaphore count > 0, resource available; */
    1890:	e0bff017 	ldw	r2,-64(fp)
    1894:	1080020b 	ldhu	r2,8(r2)
    1898:	10bfffcc 	andi	r2,r2,65535
    189c:	10001526 	beq	r2,zero,18f4 <OSEventPendMulti+0x228>
                     pevent->OSEventCnt--;              /* ... decrement semaphore,                ... */
    18a0:	e0bff017 	ldw	r2,-64(fp)
    18a4:	1080020b 	ldhu	r2,8(r2)
    18a8:	10bfffc4 	addi	r2,r2,-1
    18ac:	1007883a 	mov	r3,r2
    18b0:	e0bff017 	ldw	r2,-64(fp)
    18b4:	10c0020d 	sth	r3,8(r2)
                    *pevents_rdy++ =  pevent;           /* ... and return available semaphore event    */
    18b8:	e0bffd17 	ldw	r2,-12(fp)
    18bc:	10c00104 	addi	r3,r2,4
    18c0:	e0fffd15 	stw	r3,-12(fp)
    18c4:	e0fff017 	ldw	r3,-64(fp)
    18c8:	10c00015 	stw	r3,0(r2)
                      events_rdy   =  OS_TRUE;
    18cc:	00800044 	movi	r2,1
    18d0:	e0bff105 	stb	r2,-60(fp)
                    *pmsgs_rdy++   = (void *)0;         /* NO message returned  for semaphores         */
    18d4:	e0bffe17 	ldw	r2,-8(fp)
    18d8:	10c00104 	addi	r3,r2,4
    18dc:	e0fffe15 	stw	r3,-8(fp)
    18e0:	10000015 	stw	zero,0(r2)
                      events_rdy_nbr++;
    18e4:	e0bff18b 	ldhu	r2,-58(fp)
    18e8:	10800044 	addi	r2,r2,1
    18ec:	e0bff18d 	sth	r2,-58(fp)

                 } else {
                      events_stat |=  OS_STAT_SEM;      /* Configure multi-pend for semaphore events   */
                 }
                 break;
    18f0:	00005806 	br	1a54 <OSEventPendMulti+0x388>
                      events_rdy   =  OS_TRUE;
                    *pmsgs_rdy++   = (void *)0;         /* NO message returned  for semaphores         */
                      events_rdy_nbr++;

                 } else {
                      events_stat |=  OS_STAT_SEM;      /* Configure multi-pend for semaphore events   */
    18f4:	e0bff203 	ldbu	r2,-56(fp)
    18f8:	10800054 	ori	r2,r2,1
    18fc:	e0bff205 	stb	r2,-56(fp)
                 }
                 break;
    1900:	00005406 	br	1a54 <OSEventPendMulti+0x388>
#endif

#if (OS_MBOX_EN > 0)
            case OS_EVENT_TYPE_MBOX:
                 if (pevent->OSEventPtr != (void *)0) { /* If mailbox NOT empty;                   ... */
    1904:	e0bff017 	ldw	r2,-64(fp)
    1908:	10800117 	ldw	r2,4(r2)
    190c:	10001326 	beq	r2,zero,195c <OSEventPendMulti+0x290>
                                                        /* ... return available message,           ... */
                    *pmsgs_rdy++         = (void *)pevent->OSEventPtr;
    1910:	e0bffe17 	ldw	r2,-8(fp)
    1914:	10c00104 	addi	r3,r2,4
    1918:	e0fffe15 	stw	r3,-8(fp)
    191c:	e0fff017 	ldw	r3,-64(fp)
    1920:	18c00117 	ldw	r3,4(r3)
    1924:	10c00015 	stw	r3,0(r2)
                     pevent->OSEventPtr  = (void *)0;
    1928:	e0bff017 	ldw	r2,-64(fp)
    192c:	10000115 	stw	zero,4(r2)
                    *pevents_rdy++       =  pevent;     /* ... and return available mailbox event      */
    1930:	e0bffd17 	ldw	r2,-12(fp)
    1934:	10c00104 	addi	r3,r2,4
    1938:	e0fffd15 	stw	r3,-12(fp)
    193c:	e0fff017 	ldw	r3,-64(fp)
    1940:	10c00015 	stw	r3,0(r2)
                      events_rdy         =  OS_TRUE;
    1944:	00800044 	movi	r2,1
    1948:	e0bff105 	stb	r2,-60(fp)
                      events_rdy_nbr++;
    194c:	e0bff18b 	ldhu	r2,-58(fp)
    1950:	10800044 	addi	r2,r2,1
    1954:	e0bff18d 	sth	r2,-58(fp)

                 } else {
                      events_stat |= OS_STAT_MBOX;      /* Configure multi-pend for mailbox events     */
                 }
                 break;
    1958:	00003e06 	br	1a54 <OSEventPendMulti+0x388>
                    *pevents_rdy++       =  pevent;     /* ... and return available mailbox event      */
                      events_rdy         =  OS_TRUE;
                      events_rdy_nbr++;

                 } else {
                      events_stat |= OS_STAT_MBOX;      /* Configure multi-pend for mailbox events     */
    195c:	e0bff203 	ldbu	r2,-56(fp)
    1960:	10800094 	ori	r2,r2,2
    1964:	e0bff205 	stb	r2,-56(fp)
                 }
                 break;
    1968:	00003a06 	br	1a54 <OSEventPendMulti+0x388>
#endif

#if ((OS_Q_EN > 0) && (OS_MAX_QS > 0))
            case OS_EVENT_TYPE_Q:
                 pq = (OS_Q *)pevent->OSEventPtr;
    196c:	e0bff017 	ldw	r2,-64(fp)
    1970:	10800117 	ldw	r2,4(r2)
    1974:	e0bff415 	stw	r2,-48(fp)
                 if (pq->OSQEntries > 0) {              /* If queue NOT empty;                     ... */
    1978:	e0bff417 	ldw	r2,-48(fp)
    197c:	1080058b 	ldhu	r2,22(r2)
    1980:	10bfffcc 	andi	r2,r2,65535
    1984:	10002426 	beq	r2,zero,1a18 <OSEventPendMulti+0x34c>
                                                        /* ... return available message,           ... */
                    *pmsgs_rdy++ = (void *)*pq->OSQOut++;
    1988:	e0bffe17 	ldw	r2,-8(fp)
    198c:	10c00104 	addi	r3,r2,4
    1990:	e0fffe15 	stw	r3,-8(fp)
    1994:	e0fff417 	ldw	r3,-48(fp)
    1998:	18c00417 	ldw	r3,16(r3)
    199c:	19400104 	addi	r5,r3,4
    19a0:	e13ff417 	ldw	r4,-48(fp)
    19a4:	21400415 	stw	r5,16(r4)
    19a8:	18c00017 	ldw	r3,0(r3)
    19ac:	10c00015 	stw	r3,0(r2)
                     if (pq->OSQOut == pq->OSQEnd) {    /* If OUT ptr at queue end, ...                */
    19b0:	e0bff417 	ldw	r2,-48(fp)
    19b4:	10c00417 	ldw	r3,16(r2)
    19b8:	e0bff417 	ldw	r2,-48(fp)
    19bc:	10800217 	ldw	r2,8(r2)
    19c0:	1880041e 	bne	r3,r2,19d4 <OSEventPendMulti+0x308>
                         pq->OSQOut  = pq->OSQStart;    /* ... wrap   to queue start                   */
    19c4:	e0bff417 	ldw	r2,-48(fp)
    19c8:	10c00117 	ldw	r3,4(r2)
    19cc:	e0bff417 	ldw	r2,-48(fp)
    19d0:	10c00415 	stw	r3,16(r2)
                     }
                     pq->OSQEntries--;                  /* Update number of queue entries              */
    19d4:	e0bff417 	ldw	r2,-48(fp)
    19d8:	1080058b 	ldhu	r2,22(r2)
    19dc:	10bfffc4 	addi	r2,r2,-1
    19e0:	1007883a 	mov	r3,r2
    19e4:	e0bff417 	ldw	r2,-48(fp)
    19e8:	10c0058d 	sth	r3,22(r2)
                    *pevents_rdy++ = pevent;            /* ... and return available queue event        */
    19ec:	e0bffd17 	ldw	r2,-12(fp)
    19f0:	10c00104 	addi	r3,r2,4
    19f4:	e0fffd15 	stw	r3,-12(fp)
    19f8:	e0fff017 	ldw	r3,-64(fp)
    19fc:	10c00015 	stw	r3,0(r2)
                      events_rdy   = OS_TRUE;
    1a00:	00800044 	movi	r2,1
    1a04:	e0bff105 	stb	r2,-60(fp)
                      events_rdy_nbr++;
    1a08:	e0bff18b 	ldhu	r2,-58(fp)
    1a0c:	10800044 	addi	r2,r2,1
    1a10:	e0bff18d 	sth	r2,-58(fp)

                 } else {
                      events_stat |= OS_STAT_Q;         /* Configure multi-pend for queue events       */
                 }
                 break;
    1a14:	00000f06 	br	1a54 <OSEventPendMulti+0x388>
                    *pevents_rdy++ = pevent;            /* ... and return available queue event        */
                      events_rdy   = OS_TRUE;
                      events_rdy_nbr++;

                 } else {
                      events_stat |= OS_STAT_Q;         /* Configure multi-pend for queue events       */
    1a18:	e0bff203 	ldbu	r2,-56(fp)
    1a1c:	10800114 	ori	r2,r2,4
    1a20:	e0bff205 	stb	r2,-56(fp)
                 }
                 break;
    1a24:	00000b06 	br	1a54 <OSEventPendMulti+0x388>
    1a28:	e0bff317 	ldw	r2,-52(fp)
    1a2c:	e0bff615 	stw	r2,-40(fp)
  status &= ~NIOS2_STATUS_PIE_MSK;
  status |= (context & NIOS2_STATUS_PIE_MSK);
  
  NIOS2_WRITE_STATUS (status);
#else
  NIOS2_WRITE_STATUS (context);
    1a30:	e0bff617 	ldw	r2,-40(fp)
    1a34:	1001703a 	wrctl	status,r2

            case OS_EVENT_TYPE_MUTEX:                                            
            case OS_EVENT_TYPE_FLAG:
            default:           
                 OS_EXIT_CRITICAL();
                *pevents_rdy = (OS_EVENT *)0;           /* NULL terminate return event array           */
    1a38:	e0bffd17 	ldw	r2,-12(fp)
    1a3c:	10000015 	stw	zero,0(r2)
                *perr        =  OS_ERR_EVENT_TYPE;
    1a40:	e0800217 	ldw	r2,8(fp)
    1a44:	00c00044 	movi	r3,1
    1a48:	10c00005 	stb	r3,0(r2)
                 return (events_rdy_nbr);
    1a4c:	e0bff18b 	ldhu	r2,-58(fp)
    1a50:	00009d06 	br	1cc8 <OSEventPendMulti+0x5fc>
        }
        pevents++;
    1a54:	e0bfef17 	ldw	r2,-68(fp)
    1a58:	10800104 	addi	r2,r2,4
    1a5c:	e0bfef15 	stw	r2,-68(fp)
        pevent = *pevents;
    1a60:	e0bfef17 	ldw	r2,-68(fp)
    1a64:	10800017 	ldw	r2,0(r2)
    1a68:	e0bff015 	stw	r2,-64(fp)
    events_rdy     =  OS_FALSE;
    events_rdy_nbr =  0;
    events_stat    =  OS_STAT_RDY;
    pevents        =  pevents_pend;
    pevent         = *pevents;
    while (pevent != (OS_EVENT *)0) {                   /* See if any events already available         */
    1a6c:	e0bff017 	ldw	r2,-64(fp)
    1a70:	103f7d1e 	bne	r2,zero,1868 <OSEventPendMulti+0x19c>
        }
        pevents++;
        pevent = *pevents;
    }

    if ( events_rdy == OS_TRUE) {                       /* Return any events already available         */
    1a74:	e0bff103 	ldbu	r2,-60(fp)
    1a78:	10800058 	cmpnei	r2,r2,1
    1a7c:	10000a1e 	bne	r2,zero,1aa8 <OSEventPendMulti+0x3dc>
       *pevents_rdy = (OS_EVENT *)0;                    /* NULL terminate return event array           */
    1a80:	e0bffd17 	ldw	r2,-12(fp)
    1a84:	10000015 	stw	zero,0(r2)
    1a88:	e0bff317 	ldw	r2,-52(fp)
    1a8c:	e0bff715 	stw	r2,-36(fp)
    1a90:	e0bff717 	ldw	r2,-36(fp)
    1a94:	1001703a 	wrctl	status,r2
        OS_EXIT_CRITICAL();
       *perr        =  OS_ERR_NONE;
    1a98:	e0800217 	ldw	r2,8(fp)
    1a9c:	10000005 	stb	zero,0(r2)
        return (events_rdy_nbr);
    1aa0:	e0bff18b 	ldhu	r2,-58(fp)
    1aa4:	00008806 	br	1cc8 <OSEventPendMulti+0x5fc>
    }
/*$PAGE*/
                                                        /* Otherwise, must wait until any event occurs */
    OSTCBCur->OSTCBStat     |= events_stat  |           /* Resource not available, ...                 */
    1aa8:	d0a6e117 	ldw	r2,-25724(gp)
    1aac:	d0e6e117 	ldw	r3,-25724(gp)
    1ab0:	19000c03 	ldbu	r4,48(r3)
    1ab4:	e0fff203 	ldbu	r3,-56(fp)
    1ab8:	20c6b03a 	or	r3,r4,r3
    1abc:	1809883a 	mov	r4,r3
    1ac0:	00ffe004 	movi	r3,-128
    1ac4:	20c6b03a 	or	r3,r4,r3
    1ac8:	10c00c05 	stb	r3,48(r2)
                               OS_STAT_MULTI;           /* ... pend on multiple events                 */
    OSTCBCur->OSTCBStatPend  = OS_STAT_PEND_OK;
    1acc:	d0a6e117 	ldw	r2,-25724(gp)
    1ad0:	10000c45 	stb	zero,49(r2)
    OSTCBCur->OSTCBDly       = timeout;                 /* Store pend timeout in TCB                   */
    1ad4:	d0a6e117 	ldw	r2,-25724(gp)
    1ad8:	e0ffff0b 	ldhu	r3,-4(fp)
    1adc:	10c00b8d 	sth	r3,46(r2)
    OS_EventTaskWaitMulti(pevents_pend);                /* Suspend task until events or timeout occurs */
    1ae0:	e13ffc17 	ldw	r4,-16(fp)
    1ae4:	00026140 	call	2614 <OS_EventTaskWaitMulti>
    1ae8:	e0bff317 	ldw	r2,-52(fp)
    1aec:	e0bff815 	stw	r2,-32(fp)
    1af0:	e0bff817 	ldw	r2,-32(fp)
    1af4:	1001703a 	wrctl	status,r2

    OS_EXIT_CRITICAL();
    OS_Sched();                                         /* Find next highest priority task ready       */
    1af8:	0002d880 	call	2d88 <OS_Sched>
static ALT_INLINE alt_irq_context ALT_ALWAYS_INLINE 
       alt_irq_disable_all (void)
{
  alt_irq_context context;

  NIOS2_READ_STATUS (context);
    1afc:	0005303a 	rdctl	r2,status
    1b00:	e0bff915 	stw	r2,-28(fp)

  NIOS2_WRITE_STATUS (context & ~NIOS2_STATUS_PIE_MSK);
    1b04:	e0fff917 	ldw	r3,-28(fp)
    1b08:	00bfff84 	movi	r2,-2
    1b0c:	1884703a 	and	r2,r3,r2
    1b10:	1001703a 	wrctl	status,r2
  
  return context;
    1b14:	e0bff917 	ldw	r2,-28(fp)
    OS_ENTER_CRITICAL();
    1b18:	e0bff315 	stw	r2,-52(fp)

    switch (OSTCBCur->OSTCBStatPend) {                  /* Handle event posted, aborted, or timed-out  */
    1b1c:	d0a6e117 	ldw	r2,-25724(gp)
    1b20:	10800c43 	ldbu	r2,49(r2)
    1b24:	10803fcc 	andi	r2,r2,255
    1b28:	10000226 	beq	r2,zero,1b34 <OSEventPendMulti+0x468>
    1b2c:	108000a0 	cmpeqi	r2,r2,2
    1b30:	10001826 	beq	r2,zero,1b94 <OSEventPendMulti+0x4c8>
        case OS_STAT_PEND_OK:
        case OS_STAT_PEND_ABORT:
             pevent = OSTCBCur->OSTCBEventPtr;
    1b34:	d0a6e117 	ldw	r2,-25724(gp)
    1b38:	10800717 	ldw	r2,28(r2)
    1b3c:	e0bff015 	stw	r2,-64(fp)
             if (pevent != (OS_EVENT *)0) {             /* If task event ptr != NULL, ...              */
    1b40:	e0bff017 	ldw	r2,-64(fp)
    1b44:	10000b26 	beq	r2,zero,1b74 <OSEventPendMulti+0x4a8>
                *pevents_rdy++ =  pevent;               /* ... return available event ...              */
    1b48:	e0bffd17 	ldw	r2,-12(fp)
    1b4c:	10c00104 	addi	r3,r2,4
    1b50:	e0fffd15 	stw	r3,-12(fp)
    1b54:	e0fff017 	ldw	r3,-64(fp)
    1b58:	10c00015 	stw	r3,0(r2)
                *pevents_rdy   = (OS_EVENT *)0;         /* ... & NULL terminate return event array     */
    1b5c:	e0bffd17 	ldw	r2,-12(fp)
    1b60:	10000015 	stw	zero,0(r2)
                  events_rdy_nbr++;
    1b64:	e0bff18b 	ldhu	r2,-58(fp)
    1b68:	10800044 	addi	r2,r2,1
    1b6c:	e0bff18d 	sth	r2,-58(fp)

             } else {                                   /* Else NO event available, handle as timeout  */
                 OSTCBCur->OSTCBStatPend = OS_STAT_PEND_TO;
                 OS_EventTaskRemoveMulti(OSTCBCur, pevents_pend);
             }
			 break;
    1b70:	00000d06 	br	1ba8 <OSEventPendMulti+0x4dc>
                *pevents_rdy++ =  pevent;               /* ... return available event ...              */
                *pevents_rdy   = (OS_EVENT *)0;         /* ... & NULL terminate return event array     */
                  events_rdy_nbr++;

             } else {                                   /* Else NO event available, handle as timeout  */
                 OSTCBCur->OSTCBStatPend = OS_STAT_PEND_TO;
    1b74:	d0a6e117 	ldw	r2,-25724(gp)
    1b78:	00c00044 	movi	r3,1
    1b7c:	10c00c45 	stb	r3,49(r2)
                 OS_EventTaskRemoveMulti(OSTCBCur, pevents_pend);
    1b80:	d0a6e117 	ldw	r2,-25724(gp)
    1b84:	1009883a 	mov	r4,r2
    1b88:	e17ffc17 	ldw	r5,-16(fp)
    1b8c:	00028140 	call	2814 <OS_EventTaskRemoveMulti>
             }
			 break;
    1b90:	00000506 	br	1ba8 <OSEventPendMulti+0x4dc>

        case OS_STAT_PEND_TO:
        default:                                        /* ... remove task from events' wait lists     */
             OS_EventTaskRemoveMulti(OSTCBCur, pevents_pend);
    1b94:	d0a6e117 	ldw	r2,-25724(gp)
    1b98:	1009883a 	mov	r4,r2
    1b9c:	e17ffc17 	ldw	r5,-16(fp)
    1ba0:	00028140 	call	2814 <OS_EventTaskRemoveMulti>
             break;
    1ba4:	0001883a 	nop
    }

    switch (OSTCBCur->OSTCBStatPend) {
    1ba8:	d0a6e117 	ldw	r2,-25724(gp)
    1bac:	10800c43 	ldbu	r2,49(r2)
    1bb0:	10803fcc 	andi	r2,r2,255
    1bb4:	10000326 	beq	r2,zero,1bc4 <OSEventPendMulti+0x4f8>
    1bb8:	108000a0 	cmpeqi	r2,r2,2
    1bbc:	1000231e 	bne	r2,zero,1c4c <OSEventPendMulti+0x580>
    1bc0:	00002a06 	br	1c6c <OSEventPendMulti+0x5a0>
        case OS_STAT_PEND_OK:
             switch (pevent->OSEventType) {             /* Return event's message                      */
    1bc4:	e0bff017 	ldw	r2,-64(fp)
    1bc8:	10800003 	ldbu	r2,0(r2)
    1bcc:	10803fcc 	andi	r2,r2,255
    1bd0:	0080100e 	bge	zero,r2,1c14 <OSEventPendMulti+0x548>
    1bd4:	10c000d0 	cmplti	r3,r2,3
    1bd8:	1800071e 	bne	r3,zero,1bf8 <OSEventPendMulti+0x52c>
    1bdc:	108000e0 	cmpeqi	r2,r2,3
    1be0:	10000c26 	beq	r2,zero,1c14 <OSEventPendMulti+0x548>
#if (OS_SEM_EN > 0)
                 case OS_EVENT_TYPE_SEM:
                     *pmsgs_rdy++ = (void *)0;          /* NO message returned for semaphores          */
    1be4:	e0bffe17 	ldw	r2,-8(fp)
    1be8:	10c00104 	addi	r3,r2,4
    1bec:	e0fffe15 	stw	r3,-8(fp)
    1bf0:	10000015 	stw	zero,0(r2)
                      break;
    1bf4:	00001206 	br	1c40 <OSEventPendMulti+0x574>

#if ((OS_MBOX_EN > 0) ||                 \
    ((OS_Q_EN    > 0) && (OS_MAX_QS > 0)))
                 case OS_EVENT_TYPE_MBOX:
                 case OS_EVENT_TYPE_Q:
                     *pmsgs_rdy++ = (void *)OSTCBCur->OSTCBMsg;     /* Return received message         */
    1bf8:	e0bffe17 	ldw	r2,-8(fp)
    1bfc:	10c00104 	addi	r3,r2,4
    1c00:	e0fffe15 	stw	r3,-8(fp)
    1c04:	d0e6e117 	ldw	r3,-25724(gp)
    1c08:	18c00917 	ldw	r3,36(r3)
    1c0c:	10c00015 	stw	r3,0(r2)
                      break;
    1c10:	00000b06 	br	1c40 <OSEventPendMulti+0x574>
    1c14:	e0bff317 	ldw	r2,-52(fp)
    1c18:	e0bffa15 	stw	r2,-24(fp)
  status &= ~NIOS2_STATUS_PIE_MSK;
  status |= (context & NIOS2_STATUS_PIE_MSK);
  
  NIOS2_WRITE_STATUS (status);
#else
  NIOS2_WRITE_STATUS (context);
    1c1c:	e0bffa17 	ldw	r2,-24(fp)
    1c20:	1001703a 	wrctl	status,r2

                 case OS_EVENT_TYPE_MUTEX:                                       
                 case OS_EVENT_TYPE_FLAG:
                 default:           
                      OS_EXIT_CRITICAL();
                     *pevents_rdy = (OS_EVENT *)0;      /* NULL terminate return event array           */
    1c24:	e0bffd17 	ldw	r2,-12(fp)
    1c28:	10000015 	stw	zero,0(r2)
                     *perr        =  OS_ERR_EVENT_TYPE;
    1c2c:	e0800217 	ldw	r2,8(fp)
    1c30:	00c00044 	movi	r3,1
    1c34:	10c00005 	stb	r3,0(r2)
                      return (events_rdy_nbr);
    1c38:	e0bff18b 	ldhu	r2,-58(fp)
    1c3c:	00002206 	br	1cc8 <OSEventPendMulti+0x5fc>
             }
            *perr = OS_ERR_NONE;
    1c40:	e0800217 	ldw	r2,8(fp)
    1c44:	10000005 	stb	zero,0(r2)
             break;
    1c48:	00001006 	br	1c8c <OSEventPendMulti+0x5c0>

        case OS_STAT_PEND_ABORT:
            *pmsgs_rdy++ = (void *)0;                   /* NO message returned for abort               */
    1c4c:	e0bffe17 	ldw	r2,-8(fp)
    1c50:	10c00104 	addi	r3,r2,4
    1c54:	e0fffe15 	stw	r3,-8(fp)
    1c58:	10000015 	stw	zero,0(r2)
            *perr        =  OS_ERR_PEND_ABORT;          /* Indicate that event  aborted                */
    1c5c:	e0800217 	ldw	r2,8(fp)
    1c60:	00c00384 	movi	r3,14
    1c64:	10c00005 	stb	r3,0(r2)
             break;
    1c68:	00000806 	br	1c8c <OSEventPendMulti+0x5c0>
                                                        
        case OS_STAT_PEND_TO:                                                
        default:        
            *pmsgs_rdy++ = (void *)0;                   /* NO message returned for timeout             */
    1c6c:	e0bffe17 	ldw	r2,-8(fp)
    1c70:	10c00104 	addi	r3,r2,4
    1c74:	e0fffe15 	stw	r3,-8(fp)
    1c78:	10000015 	stw	zero,0(r2)
            *perr        =  OS_ERR_TIMEOUT;             /* Indicate that events timed out              */
    1c7c:	e0800217 	ldw	r2,8(fp)
    1c80:	00c00284 	movi	r3,10
    1c84:	10c00005 	stb	r3,0(r2)
             break;
    1c88:	0001883a 	nop
    }

    OSTCBCur->OSTCBStat          =  OS_STAT_RDY;        /* Set   task  status to ready                 */
    1c8c:	d0a6e117 	ldw	r2,-25724(gp)
    1c90:	10000c05 	stb	zero,48(r2)
    OSTCBCur->OSTCBStatPend      =  OS_STAT_PEND_OK;    /* Clear pend  status                          */
    1c94:	d0a6e117 	ldw	r2,-25724(gp)
    1c98:	10000c45 	stb	zero,49(r2)
    OSTCBCur->OSTCBEventPtr      = (OS_EVENT  *)0;      /* Clear event pointers                        */
    1c9c:	d0a6e117 	ldw	r2,-25724(gp)
    1ca0:	10000715 	stw	zero,28(r2)
    OSTCBCur->OSTCBEventMultiPtr = (OS_EVENT **)0;
    1ca4:	d0a6e117 	ldw	r2,-25724(gp)
    1ca8:	10000815 	stw	zero,32(r2)
    OSTCBCur->OSTCBMsg           = (void      *)0;      /* Clear task  message                         */
    1cac:	d0a6e117 	ldw	r2,-25724(gp)
    1cb0:	10000915 	stw	zero,36(r2)
    1cb4:	e0bff317 	ldw	r2,-52(fp)
    1cb8:	e0bffb15 	stw	r2,-20(fp)
    1cbc:	e0bffb17 	ldw	r2,-20(fp)
    1cc0:	1001703a 	wrctl	status,r2
    OS_EXIT_CRITICAL();

    return (events_rdy_nbr);
    1cc4:	e0bff18b 	ldhu	r2,-58(fp)
}
    1cc8:	e037883a 	mov	sp,fp
    1ccc:	dfc00117 	ldw	ra,4(sp)
    1cd0:	df000017 	ldw	fp,0(sp)
    1cd4:	dec00204 	addi	sp,sp,8
    1cd8:	f800283a 	ret

00001cdc <OSInit>:
* Returns    : none
*********************************************************************************************************
*/

void  OSInit (void)
{
    1cdc:	defffe04 	addi	sp,sp,-8
    1ce0:	dfc00115 	stw	ra,4(sp)
    1ce4:	df000015 	stw	fp,0(sp)
    1ce8:	d839883a 	mov	fp,sp
    OSInitHookBegin();                                           /* Call port specific initialization code   */
    1cec:	000c8340 	call	c834 <OSInitHookBegin>

    OS_InitMisc();                                               /* Initialize miscellaneous variables       */
    1cf0:	0002a500 	call	2a50 <OS_InitMisc>

    OS_InitRdyList();                                            /* Initialize the Ready List                */
    1cf4:	0002a940 	call	2a94 <OS_InitRdyList>

    OS_InitTCBList();                                            /* Initialize the free list of OS_TCBs      */
    1cf8:	0002bf40 	call	2bf4 <OS_InitTCBList>

    OS_InitEventList();                                          /* Initialize the free list of OS_EVENTs    */
    1cfc:	00029740 	call	2974 <OS_InitEventList>

#if (OS_FLAG_EN > 0) && (OS_MAX_FLAGS > 0)
    OS_FlagInit();                                               /* Initialize the event flag structures     */
    1d00:	0004b740 	call	4b74 <OS_FlagInit>
#endif

#if (OS_MEM_EN > 0) && (OS_MAX_MEM_PART > 0)
    OS_MemInit();                                                /* Initialize the memory manager            */
    1d04:	00054bc0 	call	54bc <OS_MemInit>
#endif

#if (OS_Q_EN > 0) && (OS_MAX_QS > 0)
    OS_QInit();                                                  /* Initialize the message queue structures  */
    1d08:	00066f00 	call	66f0 <OS_QInit>
#endif

    OS_InitTaskIdle();                                           /* Create the Idle Task                     */
    1d0c:	0002afc0 	call	2afc <OS_InitTaskIdle>
#if OS_TASK_STAT_EN > 0
    OS_InitTaskStat();                                           /* Create the Statistic Task                */
    1d10:	0002b780 	call	2b78 <OS_InitTaskStat>

#if OS_TMR_EN > 0
    OSTmr_Init();                                                /* Initialize the Timer Manager             */
#endif

    OSInitHookEnd();                                             /* Call port specific init. code            */
    1d14:	000c8500 	call	c850 <OSInitHookEnd>

#if OS_DEBUG_EN > 0
    OSDebugInit();
    1d18:	00034600 	call	3460 <OSDebugInit>
#endif
}
    1d1c:	e037883a 	mov	sp,fp
    1d20:	dfc00117 	ldw	ra,4(sp)
    1d24:	df000017 	ldw	fp,0(sp)
    1d28:	dec00204 	addi	sp,sp,8
    1d2c:	f800283a 	ret

00001d30 <OSIntEnter>:
*              5) You are allowed to nest interrupts up to 255 levels deep.
*********************************************************************************************************
*/

void  OSIntEnter (void)
{
    1d30:	defffc04 	addi	sp,sp,-16
    1d34:	df000315 	stw	fp,12(sp)
    1d38:	df000304 	addi	fp,sp,12
#if OS_CRITICAL_METHOD == 3                                /* Allocate storage for CPU status register */
    OS_CPU_SR  cpu_sr = 0;
    1d3c:	e03ffd15 	stw	zero,-12(fp)
#endif

    if (OSRunning == OS_TRUE) {
    1d40:	d0a6d243 	ldbu	r2,-25783(gp)
    1d44:	10803fcc 	andi	r2,r2,255
    1d48:	10800058 	cmpnei	r2,r2,1
    1d4c:	1000131e 	bne	r2,zero,1d9c <OSIntEnter+0x6c>
static ALT_INLINE alt_irq_context ALT_ALWAYS_INLINE 
       alt_irq_disable_all (void)
{
  alt_irq_context context;

  NIOS2_READ_STATUS (context);
    1d50:	0005303a 	rdctl	r2,status
    1d54:	e0bffe15 	stw	r2,-8(fp)

  NIOS2_WRITE_STATUS (context & ~NIOS2_STATUS_PIE_MSK);
    1d58:	e0fffe17 	ldw	r3,-8(fp)
    1d5c:	00bfff84 	movi	r2,-2
    1d60:	1884703a 	and	r2,r3,r2
    1d64:	1001703a 	wrctl	status,r2
  
  return context;
    1d68:	e0bffe17 	ldw	r2,-8(fp)
        OS_ENTER_CRITICAL();
    1d6c:	e0bffd15 	stw	r2,-12(fp)
        if (OSIntNesting < 255u) {
    1d70:	d0a6e003 	ldbu	r2,-25728(gp)
    1d74:	10803fcc 	andi	r2,r2,255
    1d78:	10803fe0 	cmpeqi	r2,r2,255
    1d7c:	1000031e 	bne	r2,zero,1d8c <OSIntEnter+0x5c>
            OSIntNesting++;                      /* Increment ISR nesting level                        */
    1d80:	d0a6e003 	ldbu	r2,-25728(gp)
    1d84:	10800044 	addi	r2,r2,1
    1d88:	d0a6e005 	stb	r2,-25728(gp)
    1d8c:	e0bffd17 	ldw	r2,-12(fp)
    1d90:	e0bfff15 	stw	r2,-4(fp)
  status &= ~NIOS2_STATUS_PIE_MSK;
  status |= (context & NIOS2_STATUS_PIE_MSK);
  
  NIOS2_WRITE_STATUS (status);
#else
  NIOS2_WRITE_STATUS (context);
    1d94:	e0bfff17 	ldw	r2,-4(fp)
    1d98:	1001703a 	wrctl	status,r2
        }
        OS_EXIT_CRITICAL();
    }
}
    1d9c:	e037883a 	mov	sp,fp
    1da0:	df000017 	ldw	fp,0(sp)
    1da4:	dec00104 	addi	sp,sp,4
    1da8:	f800283a 	ret

00001dac <OSIntExit>:
*              2) Rescheduling is prevented when the scheduler is locked (see OS_SchedLock())
*********************************************************************************************************
*/

void  OSIntExit (void)
{
    1dac:	defffb04 	addi	sp,sp,-20
    1db0:	dfc00415 	stw	ra,16(sp)
    1db4:	df000315 	stw	fp,12(sp)
    1db8:	df000304 	addi	fp,sp,12
#if OS_CRITICAL_METHOD == 3                                /* Allocate storage for CPU status register */
    OS_CPU_SR  cpu_sr = 0;
    1dbc:	e03ffd15 	stw	zero,-12(fp)
#endif



    if (OSRunning == OS_TRUE) {
    1dc0:	d0a6d243 	ldbu	r2,-25783(gp)
    1dc4:	10803fcc 	andi	r2,r2,255
    1dc8:	10800058 	cmpnei	r2,r2,1
    1dcc:	10002f1e 	bne	r2,zero,1e8c <OSIntExit+0xe0>
static ALT_INLINE alt_irq_context ALT_ALWAYS_INLINE 
       alt_irq_disable_all (void)
{
  alt_irq_context context;

  NIOS2_READ_STATUS (context);
    1dd0:	0005303a 	rdctl	r2,status
    1dd4:	e0bffe15 	stw	r2,-8(fp)

  NIOS2_WRITE_STATUS (context & ~NIOS2_STATUS_PIE_MSK);
    1dd8:	e0fffe17 	ldw	r3,-8(fp)
    1ddc:	00bfff84 	movi	r2,-2
    1de0:	1884703a 	and	r2,r3,r2
    1de4:	1001703a 	wrctl	status,r2
  
  return context;
    1de8:	e0bffe17 	ldw	r2,-8(fp)
        OS_ENTER_CRITICAL();
    1dec:	e0bffd15 	stw	r2,-12(fp)
        if (OSIntNesting > 0) {                            /* Prevent OSIntNesting from wrapping       */
    1df0:	d0a6e003 	ldbu	r2,-25728(gp)
    1df4:	10803fcc 	andi	r2,r2,255
    1df8:	10000326 	beq	r2,zero,1e08 <OSIntExit+0x5c>
            OSIntNesting--;
    1dfc:	d0a6e003 	ldbu	r2,-25728(gp)
    1e00:	10bfffc4 	addi	r2,r2,-1
    1e04:	d0a6e005 	stb	r2,-25728(gp)
        }
        if (OSIntNesting == 0) {                           /* Reschedule only if all ISRs complete ... */
    1e08:	d0a6e003 	ldbu	r2,-25728(gp)
    1e0c:	10803fcc 	andi	r2,r2,255
    1e10:	10001a1e 	bne	r2,zero,1e7c <OSIntExit+0xd0>
            if (OSLockNesting == 0) {                      /* ... and not locked.                      */
    1e14:	d0a6d203 	ldbu	r2,-25784(gp)
    1e18:	10803fcc 	andi	r2,r2,255
    1e1c:	1000171e 	bne	r2,zero,1e7c <OSIntExit+0xd0>
                OS_SchedNew();
    1e20:	0002e540 	call	2e54 <OS_SchedNew>
                if (OSPrioHighRdy != OSPrioCur) {          /* No Ctx Sw if current task is highest rdy */
    1e24:	d0e6d403 	ldbu	r3,-25776(gp)
    1e28:	d0a6d443 	ldbu	r2,-25775(gp)
    1e2c:	18c03fcc 	andi	r3,r3,255
    1e30:	10803fcc 	andi	r2,r2,255
    1e34:	18801126 	beq	r3,r2,1e7c <OSIntExit+0xd0>
                    OSTCBHighRdy  = OSTCBPrioTbl[OSPrioHighRdy];
    1e38:	d0a6d403 	ldbu	r2,-25776(gp)
    1e3c:	10c03fcc 	andi	r3,r2,255
    1e40:	00800074 	movhi	r2,1
    1e44:	109f5704 	addi	r2,r2,32092
    1e48:	18c7883a 	add	r3,r3,r3
    1e4c:	18c7883a 	add	r3,r3,r3
    1e50:	10c5883a 	add	r2,r2,r3
    1e54:	10800017 	ldw	r2,0(r2)
    1e58:	d0a6dc15 	stw	r2,-25744(gp)
#if OS_TASK_PROFILE_EN > 0
                    OSTCBHighRdy->OSTCBCtxSwCtr++;         /* Inc. # of context switches to this task  */
    1e5c:	d0a6dc17 	ldw	r2,-25744(gp)
    1e60:	10c00e17 	ldw	r3,56(r2)
    1e64:	18c00044 	addi	r3,r3,1
    1e68:	10c00e15 	stw	r3,56(r2)
#endif
                    OSCtxSwCtr++;                          /* Keep track of the number of ctx switches */
    1e6c:	d0a6d717 	ldw	r2,-25764(gp)
    1e70:	10800044 	addi	r2,r2,1
    1e74:	d0a6d715 	stw	r2,-25764(gp)
                    OSIntCtxSw();                          /* Perform interrupt level ctx switch       */
    1e78:	000c5740 	call	c574 <OSCtxSw>
    1e7c:	e0bffd17 	ldw	r2,-12(fp)
    1e80:	e0bfff15 	stw	r2,-4(fp)
  status &= ~NIOS2_STATUS_PIE_MSK;
  status |= (context & NIOS2_STATUS_PIE_MSK);
  
  NIOS2_WRITE_STATUS (status);
#else
  NIOS2_WRITE_STATUS (context);
    1e84:	e0bfff17 	ldw	r2,-4(fp)
    1e88:	1001703a 	wrctl	status,r2
                }
            }
        }
        OS_EXIT_CRITICAL();
    }
}
    1e8c:	e037883a 	mov	sp,fp
    1e90:	dfc00117 	ldw	ra,4(sp)
    1e94:	df000017 	ldw	fp,0(sp)
    1e98:	dec00204 	addi	sp,sp,8
    1e9c:	f800283a 	ret

00001ea0 <OSSchedLock>:
*********************************************************************************************************
*/

#if OS_SCHED_LOCK_EN > 0
void  OSSchedLock (void)
{
    1ea0:	defffc04 	addi	sp,sp,-16
    1ea4:	df000315 	stw	fp,12(sp)
    1ea8:	df000304 	addi	fp,sp,12
#if OS_CRITICAL_METHOD == 3                      /* Allocate storage for CPU status register           */
    OS_CPU_SR  cpu_sr = 0;
    1eac:	e03ffd15 	stw	zero,-12(fp)
#endif



    if (OSRunning == OS_TRUE) {                  /* Make sure multitasking is running                  */
    1eb0:	d0a6d243 	ldbu	r2,-25783(gp)
    1eb4:	10803fcc 	andi	r2,r2,255
    1eb8:	10800058 	cmpnei	r2,r2,1
    1ebc:	1000161e 	bne	r2,zero,1f18 <OSSchedLock+0x78>
static ALT_INLINE alt_irq_context ALT_ALWAYS_INLINE 
       alt_irq_disable_all (void)
{
  alt_irq_context context;

  NIOS2_READ_STATUS (context);
    1ec0:	0005303a 	rdctl	r2,status
    1ec4:	e0bffe15 	stw	r2,-8(fp)

  NIOS2_WRITE_STATUS (context & ~NIOS2_STATUS_PIE_MSK);
    1ec8:	e0fffe17 	ldw	r3,-8(fp)
    1ecc:	00bfff84 	movi	r2,-2
    1ed0:	1884703a 	and	r2,r3,r2
    1ed4:	1001703a 	wrctl	status,r2
  
  return context;
    1ed8:	e0bffe17 	ldw	r2,-8(fp)
        OS_ENTER_CRITICAL();
    1edc:	e0bffd15 	stw	r2,-12(fp)
        if (OSIntNesting == 0) {                 /* Can't call from an ISR                             */
    1ee0:	d0a6e003 	ldbu	r2,-25728(gp)
    1ee4:	10803fcc 	andi	r2,r2,255
    1ee8:	1000071e 	bne	r2,zero,1f08 <OSSchedLock+0x68>
            if (OSLockNesting < 255u) {          /* Prevent OSLockNesting from wrapping back to 0      */
    1eec:	d0a6d203 	ldbu	r2,-25784(gp)
    1ef0:	10803fcc 	andi	r2,r2,255
    1ef4:	10803fe0 	cmpeqi	r2,r2,255
    1ef8:	1000031e 	bne	r2,zero,1f08 <OSSchedLock+0x68>
                OSLockNesting++;                 /* Increment lock nesting level                       */
    1efc:	d0a6d203 	ldbu	r2,-25784(gp)
    1f00:	10800044 	addi	r2,r2,1
    1f04:	d0a6d205 	stb	r2,-25784(gp)
    1f08:	e0bffd17 	ldw	r2,-12(fp)
    1f0c:	e0bfff15 	stw	r2,-4(fp)
  status &= ~NIOS2_STATUS_PIE_MSK;
  status |= (context & NIOS2_STATUS_PIE_MSK);
  
  NIOS2_WRITE_STATUS (status);
#else
  NIOS2_WRITE_STATUS (context);
    1f10:	e0bfff17 	ldw	r2,-4(fp)
    1f14:	1001703a 	wrctl	status,r2
            }
        }
        OS_EXIT_CRITICAL();
    }
}
    1f18:	e037883a 	mov	sp,fp
    1f1c:	df000017 	ldw	fp,0(sp)
    1f20:	dec00104 	addi	sp,sp,4
    1f24:	f800283a 	ret

00001f28 <OSSchedUnlock>:
*********************************************************************************************************
*/

#if OS_SCHED_LOCK_EN > 0
void  OSSchedUnlock (void)
{
    1f28:	defff804 	addi	sp,sp,-32
    1f2c:	dfc00715 	stw	ra,28(sp)
    1f30:	df000615 	stw	fp,24(sp)
    1f34:	df000604 	addi	fp,sp,24
#if OS_CRITICAL_METHOD == 3                                /* Allocate storage for CPU status register */
    OS_CPU_SR  cpu_sr = 0;
    1f38:	e03ffa15 	stw	zero,-24(fp)
#endif



    if (OSRunning == OS_TRUE) {                            /* Make sure multitasking is running        */
    1f3c:	d0a6d243 	ldbu	r2,-25783(gp)
    1f40:	10803fcc 	andi	r2,r2,255
    1f44:	10800058 	cmpnei	r2,r2,1
    1f48:	1000281e 	bne	r2,zero,1fec <OSSchedUnlock+0xc4>
static ALT_INLINE alt_irq_context ALT_ALWAYS_INLINE 
       alt_irq_disable_all (void)
{
  alt_irq_context context;

  NIOS2_READ_STATUS (context);
    1f4c:	0005303a 	rdctl	r2,status
    1f50:	e0bffb15 	stw	r2,-20(fp)

  NIOS2_WRITE_STATUS (context & ~NIOS2_STATUS_PIE_MSK);
    1f54:	e0fffb17 	ldw	r3,-20(fp)
    1f58:	00bfff84 	movi	r2,-2
    1f5c:	1884703a 	and	r2,r3,r2
    1f60:	1001703a 	wrctl	status,r2
  
  return context;
    1f64:	e0bffb17 	ldw	r2,-20(fp)
        OS_ENTER_CRITICAL();
    1f68:	e0bffa15 	stw	r2,-24(fp)
        if (OSLockNesting > 0) {                           /* Do not decrement if already 0            */
    1f6c:	d0a6d203 	ldbu	r2,-25784(gp)
    1f70:	10803fcc 	andi	r2,r2,255
    1f74:	10001926 	beq	r2,zero,1fdc <OSSchedUnlock+0xb4>
            OSLockNesting--;                               /* Decrement lock nesting level             */
    1f78:	d0a6d203 	ldbu	r2,-25784(gp)
    1f7c:	10bfffc4 	addi	r2,r2,-1
    1f80:	d0a6d205 	stb	r2,-25784(gp)
            if (OSLockNesting == 0) {                      /* See if scheduler is enabled and ...      */
    1f84:	d0a6d203 	ldbu	r2,-25784(gp)
    1f88:	10803fcc 	andi	r2,r2,255
    1f8c:	10000e1e 	bne	r2,zero,1fc8 <OSSchedUnlock+0xa0>
                if (OSIntNesting == 0) {                   /* ... not in an ISR                        */
    1f90:	d0a6e003 	ldbu	r2,-25728(gp)
    1f94:	10803fcc 	andi	r2,r2,255
    1f98:	1000061e 	bne	r2,zero,1fb4 <OSSchedUnlock+0x8c>
    1f9c:	e0bffa17 	ldw	r2,-24(fp)
    1fa0:	e0bffc15 	stw	r2,-16(fp)
  status &= ~NIOS2_STATUS_PIE_MSK;
  status |= (context & NIOS2_STATUS_PIE_MSK);
  
  NIOS2_WRITE_STATUS (status);
#else
  NIOS2_WRITE_STATUS (context);
    1fa4:	e0bffc17 	ldw	r2,-16(fp)
    1fa8:	1001703a 	wrctl	status,r2
                    OS_EXIT_CRITICAL();
                    OS_Sched();                            /* See if a HPT is ready                    */
    1fac:	0002d880 	call	2d88 <OS_Sched>
    1fb0:	00000e06 	br	1fec <OSSchedUnlock+0xc4>
    1fb4:	e0bffa17 	ldw	r2,-24(fp)
    1fb8:	e0bffd15 	stw	r2,-12(fp)
    1fbc:	e0bffd17 	ldw	r2,-12(fp)
    1fc0:	1001703a 	wrctl	status,r2
    1fc4:	00000906 	br	1fec <OSSchedUnlock+0xc4>
    1fc8:	e0bffa17 	ldw	r2,-24(fp)
    1fcc:	e0bffe15 	stw	r2,-8(fp)
    1fd0:	e0bffe17 	ldw	r2,-8(fp)
    1fd4:	1001703a 	wrctl	status,r2
    1fd8:	00000406 	br	1fec <OSSchedUnlock+0xc4>
    1fdc:	e0bffa17 	ldw	r2,-24(fp)
    1fe0:	e0bfff15 	stw	r2,-4(fp)
    1fe4:	e0bfff17 	ldw	r2,-4(fp)
    1fe8:	1001703a 	wrctl	status,r2
            }
        } else {
            OS_EXIT_CRITICAL();
        }
    }
}
    1fec:	e037883a 	mov	sp,fp
    1ff0:	dfc00117 	ldw	ra,4(sp)
    1ff4:	df000017 	ldw	fp,0(sp)
    1ff8:	dec00204 	addi	sp,sp,8
    1ffc:	f800283a 	ret

00002000 <OSStart>:
*                 d_ Execute the task.
*********************************************************************************************************
*/

void  OSStart (void)
{
    2000:	defffe04 	addi	sp,sp,-8
    2004:	dfc00115 	stw	ra,4(sp)
    2008:	df000015 	stw	fp,0(sp)
    200c:	d839883a 	mov	fp,sp
    if (OSRunning == OS_FALSE) {
    2010:	d0a6d243 	ldbu	r2,-25783(gp)
    2014:	10803fcc 	andi	r2,r2,255
    2018:	10000f1e 	bne	r2,zero,2058 <OSStart+0x58>
        OS_SchedNew();                               /* Find highest priority's task priority number   */
    201c:	0002e540 	call	2e54 <OS_SchedNew>
        OSPrioCur     = OSPrioHighRdy;
    2020:	d0a6d403 	ldbu	r2,-25776(gp)
    2024:	d0a6d445 	stb	r2,-25775(gp)
        OSTCBHighRdy  = OSTCBPrioTbl[OSPrioHighRdy]; /* Point to highest priority task ready to run    */
    2028:	d0a6d403 	ldbu	r2,-25776(gp)
    202c:	10c03fcc 	andi	r3,r2,255
    2030:	00800074 	movhi	r2,1
    2034:	109f5704 	addi	r2,r2,32092
    2038:	18c7883a 	add	r3,r3,r3
    203c:	18c7883a 	add	r3,r3,r3
    2040:	10c5883a 	add	r2,r2,r3
    2044:	10800017 	ldw	r2,0(r2)
    2048:	d0a6dc15 	stw	r2,-25744(gp)
        OSTCBCur      = OSTCBHighRdy;
    204c:	d0a6dc17 	ldw	r2,-25744(gp)
    2050:	d0a6e115 	stw	r2,-25724(gp)
        OSStartHighRdy();                            /* Execute target specific code to start task     */
    2054:	000c6000 	call	c600 <OSStartHighRdy>
    }
}
    2058:	e037883a 	mov	sp,fp
    205c:	dfc00117 	ldw	ra,4(sp)
    2060:	df000017 	ldw	fp,0(sp)
    2064:	dec00204 	addi	sp,sp,8
    2068:	f800283a 	ret

0000206c <OSStatInit>:
*********************************************************************************************************
*/

#if OS_TASK_STAT_EN > 0
void  OSStatInit (void)
{
    206c:	defff904 	addi	sp,sp,-28
    2070:	dfc00615 	stw	ra,24(sp)
    2074:	df000515 	stw	fp,20(sp)
    2078:	df000504 	addi	fp,sp,20
#if OS_CRITICAL_METHOD == 3                      /* Allocate storage for CPU status register           */
    OS_CPU_SR  cpu_sr = 0;
    207c:	e03ffb15 	stw	zero,-20(fp)
#endif



    OSTimeDly(2);                                /* Synchronize with clock tick                        */
    2080:	01000084 	movi	r4,2
    2084:	0008b980 	call	8b98 <OSTimeDly>
static ALT_INLINE alt_irq_context ALT_ALWAYS_INLINE 
       alt_irq_disable_all (void)
{
  alt_irq_context context;

  NIOS2_READ_STATUS (context);
    2088:	0005303a 	rdctl	r2,status
    208c:	e0bffc15 	stw	r2,-16(fp)

  NIOS2_WRITE_STATUS (context & ~NIOS2_STATUS_PIE_MSK);
    2090:	e0fffc17 	ldw	r3,-16(fp)
    2094:	00bfff84 	movi	r2,-2
    2098:	1884703a 	and	r2,r3,r2
    209c:	1001703a 	wrctl	status,r2
  
  return context;
    20a0:	e0bffc17 	ldw	r2,-16(fp)
    OS_ENTER_CRITICAL();
    20a4:	e0bffb15 	stw	r2,-20(fp)
    OSIdleCtr    = 0L;                           /* Clear idle counter                                 */
    20a8:	d026d315 	stw	zero,-25780(gp)
    20ac:	e0bffb17 	ldw	r2,-20(fp)
    20b0:	e0bffd15 	stw	r2,-12(fp)
  status &= ~NIOS2_STATUS_PIE_MSK;
  status |= (context & NIOS2_STATUS_PIE_MSK);
  
  NIOS2_WRITE_STATUS (status);
#else
  NIOS2_WRITE_STATUS (context);
    20b4:	e0bffd17 	ldw	r2,-12(fp)
    20b8:	1001703a 	wrctl	status,r2
    OS_EXIT_CRITICAL();
    OSTimeDly(OS_TICKS_PER_SEC / 10);            /* Determine MAX. idle counter value for 1/10 second  */
    20bc:	0009883a 	mov	r4,zero
    20c0:	0008b980 	call	8b98 <OSTimeDly>
static ALT_INLINE alt_irq_context ALT_ALWAYS_INLINE 
       alt_irq_disable_all (void)
{
  alt_irq_context context;

  NIOS2_READ_STATUS (context);
    20c4:	0005303a 	rdctl	r2,status
    20c8:	e0bffe15 	stw	r2,-8(fp)

  NIOS2_WRITE_STATUS (context & ~NIOS2_STATUS_PIE_MSK);
    20cc:	e0fffe17 	ldw	r3,-8(fp)
    20d0:	00bfff84 	movi	r2,-2
    20d4:	1884703a 	and	r2,r3,r2
    20d8:	1001703a 	wrctl	status,r2
  
  return context;
    20dc:	e0bffe17 	ldw	r2,-8(fp)
    OS_ENTER_CRITICAL();
    20e0:	e0bffb15 	stw	r2,-20(fp)
    OSIdleCtrMax = OSIdleCtr;                    /* Store maximum idle counter count in 1/10 second    */
    20e4:	d0a6d317 	ldw	r2,-25780(gp)
    20e8:	d0a6d815 	stw	r2,-25760(gp)
    OSStatRdy    = OS_TRUE;
    20ec:	00800044 	movi	r2,1
    20f0:	d0a6e405 	stb	r2,-25712(gp)
    20f4:	e0bffb17 	ldw	r2,-20(fp)
    20f8:	e0bfff15 	stw	r2,-4(fp)
  status &= ~NIOS2_STATUS_PIE_MSK;
  status |= (context & NIOS2_STATUS_PIE_MSK);
  
  NIOS2_WRITE_STATUS (status);
#else
  NIOS2_WRITE_STATUS (context);
    20fc:	e0bfff17 	ldw	r2,-4(fp)
    2100:	1001703a 	wrctl	status,r2
    OS_EXIT_CRITICAL();
}
    2104:	e037883a 	mov	sp,fp
    2108:	dfc00117 	ldw	ra,4(sp)
    210c:	df000017 	ldw	fp,0(sp)
    2110:	dec00204 	addi	sp,sp,8
    2114:	f800283a 	ret

00002118 <OSTimeTick>:
* Returns    : none
*********************************************************************************************************
*/

void  OSTimeTick (void)
{
    2118:	defff704 	addi	sp,sp,-36
    211c:	dfc00815 	stw	ra,32(sp)
    2120:	df000715 	stw	fp,28(sp)
    2124:	df000704 	addi	fp,sp,28
    OS_TCB    *ptcb;
#if OS_TICK_STEP_EN > 0
    BOOLEAN    step;
#endif
#if OS_CRITICAL_METHOD == 3                                /* Allocate storage for CPU status register     */
    OS_CPU_SR  cpu_sr = 0;
    2128:	e03ffb15 	stw	zero,-20(fp)
#endif



#if OS_TIME_TICK_HOOK_EN > 0
    OSTimeTickHook();                                      /* Call user definable hook                     */
    212c:	000c8180 	call	c818 <OSTimeTickHook>
static ALT_INLINE alt_irq_context ALT_ALWAYS_INLINE 
       alt_irq_disable_all (void)
{
  alt_irq_context context;

  NIOS2_READ_STATUS (context);
    2130:	0005303a 	rdctl	r2,status
    2134:	e0bffc15 	stw	r2,-16(fp)

  NIOS2_WRITE_STATUS (context & ~NIOS2_STATUS_PIE_MSK);
    2138:	e0fffc17 	ldw	r3,-16(fp)
    213c:	00bfff84 	movi	r2,-2
    2140:	1884703a 	and	r2,r3,r2
    2144:	1001703a 	wrctl	status,r2
  
  return context;
    2148:	e0bffc17 	ldw	r2,-16(fp)
#endif
#if OS_TIME_GET_SET_EN > 0
    OS_ENTER_CRITICAL();                                   /* Update the 32-bit tick counter               */
    214c:	e0bffb15 	stw	r2,-20(fp)
    OSTime++;
    2150:	d0a6e217 	ldw	r2,-25720(gp)
    2154:	10800044 	addi	r2,r2,1
    2158:	d0a6e215 	stw	r2,-25720(gp)
    215c:	e0bffb17 	ldw	r2,-20(fp)
    2160:	e0bffd15 	stw	r2,-12(fp)
  status &= ~NIOS2_STATUS_PIE_MSK;
  status |= (context & NIOS2_STATUS_PIE_MSK);
  
  NIOS2_WRITE_STATUS (status);
#else
  NIOS2_WRITE_STATUS (context);
    2164:	e0bffd17 	ldw	r2,-12(fp)
    2168:	1001703a 	wrctl	status,r2
    OS_EXIT_CRITICAL();
#endif
    if (OSRunning == OS_TRUE) {
    216c:	d0a6d243 	ldbu	r2,-25783(gp)
    2170:	10803fcc 	andi	r2,r2,255
    2174:	10800058 	cmpnei	r2,r2,1
    2178:	1000691e 	bne	r2,zero,2320 <OSTimeTick+0x208>
#if OS_TICK_STEP_EN > 0
        switch (OSTickStepState) {                         /* Determine whether we need to process a tick  */
    217c:	d0a6d603 	ldbu	r2,-25768(gp)
    2180:	10803fcc 	andi	r2,r2,255
    2184:	10c00060 	cmpeqi	r3,r2,1
    2188:	1800061e 	bne	r3,zero,21a4 <OSTimeTick+0x8c>
    218c:	10c000a0 	cmpeqi	r3,r2,2
    2190:	1800061e 	bne	r3,zero,21ac <OSTimeTick+0x94>
    2194:	10000a1e 	bne	r2,zero,21c0 <OSTimeTick+0xa8>
            case OS_TICK_STEP_DIS:                         /* Yes, stepping is disabled                    */
                 step = OS_TRUE;
    2198:	00800044 	movi	r2,1
    219c:	e0bffa05 	stb	r2,-24(fp)
                 break;
    21a0:	00000b06 	br	21d0 <OSTimeTick+0xb8>

            case OS_TICK_STEP_WAIT:                        /* No,  waiting for uC/OS-View to set ...       */
                 step = OS_FALSE;                          /*      .. OSTickStepState to OS_TICK_STEP_ONCE */
    21a4:	e03ffa05 	stb	zero,-24(fp)
                 break;
    21a8:	00000906 	br	21d0 <OSTimeTick+0xb8>

            case OS_TICK_STEP_ONCE:                        /* Yes, process tick once and wait for next ... */
                 step            = OS_TRUE;                /*      ... step command from uC/OS-View        */
    21ac:	00800044 	movi	r2,1
    21b0:	e0bffa05 	stb	r2,-24(fp)
                 OSTickStepState = OS_TICK_STEP_WAIT;
    21b4:	00800044 	movi	r2,1
    21b8:	d0a6d605 	stb	r2,-25768(gp)
                 break;
    21bc:	00000406 	br	21d0 <OSTimeTick+0xb8>

            default:                                       /* Invalid case, correct situation              */
                 step            = OS_TRUE;
    21c0:	00800044 	movi	r2,1
    21c4:	e0bffa05 	stb	r2,-24(fp)
                 OSTickStepState = OS_TICK_STEP_DIS;
    21c8:	d026d605 	stb	zero,-25768(gp)
                 break;
    21cc:	0001883a 	nop
        }
        if (step == OS_FALSE) {                            /* Return if waiting for step command           */
    21d0:	e0bffa03 	ldbu	r2,-24(fp)
    21d4:	1000011e 	bne	r2,zero,21dc <OSTimeTick+0xc4>
            return;
    21d8:	00005106 	br	2320 <OSTimeTick+0x208>
        }
#endif
        ptcb = OSTCBList;                                  /* Point at first TCB in TCB list               */
    21dc:	d0a6d517 	ldw	r2,-25772(gp)
    21e0:	e0bff915 	stw	r2,-28(fp)
        while (ptcb->OSTCBPrio != OS_TASK_IDLE_PRIO) {     /* Go through all TCBs in TCB list              */
    21e4:	00004906 	br	230c <OSTimeTick+0x1f4>
static ALT_INLINE alt_irq_context ALT_ALWAYS_INLINE 
       alt_irq_disable_all (void)
{
  alt_irq_context context;

  NIOS2_READ_STATUS (context);
    21e8:	0005303a 	rdctl	r2,status
    21ec:	e0bffe15 	stw	r2,-8(fp)

  NIOS2_WRITE_STATUS (context & ~NIOS2_STATUS_PIE_MSK);
    21f0:	e0fffe17 	ldw	r3,-8(fp)
    21f4:	00bfff84 	movi	r2,-2
    21f8:	1884703a 	and	r2,r3,r2
    21fc:	1001703a 	wrctl	status,r2
  
  return context;
    2200:	e0bffe17 	ldw	r2,-8(fp)
            OS_ENTER_CRITICAL();
    2204:	e0bffb15 	stw	r2,-20(fp)
            if (ptcb->OSTCBDly != 0) {                     /* No, Delayed or waiting for event with TO     */
    2208:	e0bff917 	ldw	r2,-28(fp)
    220c:	10800b8b 	ldhu	r2,46(r2)
    2210:	10bfffcc 	andi	r2,r2,65535
    2214:	10003626 	beq	r2,zero,22f0 <OSTimeTick+0x1d8>
                if (--ptcb->OSTCBDly == 0) {               /* Decrement nbr of ticks to end of delay       */
    2218:	e0bff917 	ldw	r2,-28(fp)
    221c:	10800b8b 	ldhu	r2,46(r2)
    2220:	10bfffc4 	addi	r2,r2,-1
    2224:	1007883a 	mov	r3,r2
    2228:	e0bff917 	ldw	r2,-28(fp)
    222c:	10c00b8d 	sth	r3,46(r2)
    2230:	e0bff917 	ldw	r2,-28(fp)
    2234:	10800b8b 	ldhu	r2,46(r2)
    2238:	10bfffcc 	andi	r2,r2,65535
    223c:	10002c1e 	bne	r2,zero,22f0 <OSTimeTick+0x1d8>
                                                           /* Check for timeout                            */
                    if ((ptcb->OSTCBStat & OS_STAT_PEND_ANY) != OS_STAT_RDY) {
    2240:	e0bff917 	ldw	r2,-28(fp)
    2244:	10800c03 	ldbu	r2,48(r2)
    2248:	10803fcc 	andi	r2,r2,255
    224c:	10800dcc 	andi	r2,r2,55
    2250:	10000b26 	beq	r2,zero,2280 <OSTimeTick+0x168>
                        ptcb->OSTCBStat  &= ~(INT8U)OS_STAT_PEND_ANY;          /* Yes, Clear status flag   */
    2254:	e0bff917 	ldw	r2,-28(fp)
    2258:	10c00c03 	ldbu	r3,48(r2)
    225c:	00bff204 	movi	r2,-56
    2260:	1884703a 	and	r2,r3,r2
    2264:	1007883a 	mov	r3,r2
    2268:	e0bff917 	ldw	r2,-28(fp)
    226c:	10c00c05 	stb	r3,48(r2)
                        ptcb->OSTCBStatPend = OS_STAT_PEND_TO;                 /* Indicate PEND timeout    */
    2270:	e0bff917 	ldw	r2,-28(fp)
    2274:	00c00044 	movi	r3,1
    2278:	10c00c45 	stb	r3,49(r2)
    227c:	00000206 	br	2288 <OSTimeTick+0x170>
                    } else {
                        ptcb->OSTCBStatPend = OS_STAT_PEND_OK;
    2280:	e0bff917 	ldw	r2,-28(fp)
    2284:	10000c45 	stb	zero,49(r2)
                    }

                    if ((ptcb->OSTCBStat & OS_STAT_SUSPEND) == OS_STAT_RDY) {  /* Is task suspended?       */
    2288:	e0bff917 	ldw	r2,-28(fp)
    228c:	10800c03 	ldbu	r2,48(r2)
    2290:	10803fcc 	andi	r2,r2,255
    2294:	1080020c 	andi	r2,r2,8
    2298:	1000151e 	bne	r2,zero,22f0 <OSTimeTick+0x1d8>
                        OSRdyGrp               |= ptcb->OSTCBBitY;             /* No,  Make ready          */
    229c:	e0bff917 	ldw	r2,-28(fp)
    22a0:	10c00d83 	ldbu	r3,54(r2)
    22a4:	d0a6de03 	ldbu	r2,-25736(gp)
    22a8:	1884b03a 	or	r2,r3,r2
    22ac:	d0a6de05 	stb	r2,-25736(gp)
                        OSRdyTbl[ptcb->OSTCBY] |= ptcb->OSTCBBitX;
    22b0:	e0bff917 	ldw	r2,-28(fp)
    22b4:	10800d03 	ldbu	r2,52(r2)
    22b8:	10c03fcc 	andi	r3,r2,255
    22bc:	e0bff917 	ldw	r2,-28(fp)
    22c0:	10800d03 	ldbu	r2,52(r2)
    22c4:	11003fcc 	andi	r4,r2,255
    22c8:	d0a6de44 	addi	r2,gp,-25735
    22cc:	2085883a 	add	r2,r4,r2
    22d0:	11000003 	ldbu	r4,0(r2)
    22d4:	e0bff917 	ldw	r2,-28(fp)
    22d8:	10800d43 	ldbu	r2,53(r2)
    22dc:	2084b03a 	or	r2,r4,r2
    22e0:	1009883a 	mov	r4,r2
    22e4:	d0a6de44 	addi	r2,gp,-25735
    22e8:	1885883a 	add	r2,r3,r2
    22ec:	11000005 	stb	r4,0(r2)
                    }
                }
            }
            ptcb = ptcb->OSTCBNext;                        /* Point at next TCB in TCB list                */
    22f0:	e0bff917 	ldw	r2,-28(fp)
    22f4:	10800517 	ldw	r2,20(r2)
    22f8:	e0bff915 	stw	r2,-28(fp)
    22fc:	e0bffb17 	ldw	r2,-20(fp)
    2300:	e0bfff15 	stw	r2,-4(fp)
  status &= ~NIOS2_STATUS_PIE_MSK;
  status |= (context & NIOS2_STATUS_PIE_MSK);
  
  NIOS2_WRITE_STATUS (status);
#else
  NIOS2_WRITE_STATUS (context);
    2304:	e0bfff17 	ldw	r2,-4(fp)
    2308:	1001703a 	wrctl	status,r2
        if (step == OS_FALSE) {                            /* Return if waiting for step command           */
            return;
        }
#endif
        ptcb = OSTCBList;                                  /* Point at first TCB in TCB list               */
        while (ptcb->OSTCBPrio != OS_TASK_IDLE_PRIO) {     /* Go through all TCBs in TCB list              */
    230c:	e0bff917 	ldw	r2,-28(fp)
    2310:	10800c83 	ldbu	r2,50(r2)
    2314:	10803fcc 	andi	r2,r2,255
    2318:	10800518 	cmpnei	r2,r2,20
    231c:	103fb21e 	bne	r2,zero,21e8 <OSTimeTick+0xd0>
            }
            ptcb = ptcb->OSTCBNext;                        /* Point at next TCB in TCB list                */
            OS_EXIT_CRITICAL();
        }
    }
}
    2320:	e037883a 	mov	sp,fp
    2324:	dfc00117 	ldw	ra,4(sp)
    2328:	df000017 	ldw	fp,0(sp)
    232c:	dec00204 	addi	sp,sp,8
    2330:	f800283a 	ret

00002334 <OSVersion>:
* Returns    : the version number of uC/OS-II multiplied by 100.
*********************************************************************************************************
*/

INT16U  OSVersion (void)
{
    2334:	deffff04 	addi	sp,sp,-4
    2338:	df000015 	stw	fp,0(sp)
    233c:	d839883a 	mov	fp,sp
    return (OS_VERSION);
    2340:	00804784 	movi	r2,286
}
    2344:	e037883a 	mov	sp,fp
    2348:	df000017 	ldw	fp,0(sp)
    234c:	dec00104 	addi	sp,sp,4
    2350:	f800283a 	ret

00002354 <OS_Dummy>:
*********************************************************************************************************
*/

#if OS_TASK_DEL_EN > 0
void  OS_Dummy (void)
{
    2354:	deffff04 	addi	sp,sp,-4
    2358:	df000015 	stw	fp,0(sp)
    235c:	d839883a 	mov	fp,sp
}
    2360:	e037883a 	mov	sp,fp
    2364:	df000017 	ldw	fp,0(sp)
    2368:	dec00104 	addi	sp,sp,4
    236c:	f800283a 	ret

00002370 <OS_EventTaskRdy>:
* Note       : This function is INTERNAL to uC/OS-II and your application should not call it.
*********************************************************************************************************
*/
#if (OS_EVENT_EN)
INT8U  OS_EventTaskRdy (OS_EVENT *pevent, void *pmsg, INT8U msk, INT8U pend_stat)
{
    2370:	defff804 	addi	sp,sp,-32
    2374:	dfc00715 	stw	ra,28(sp)
    2378:	df000615 	stw	fp,24(sp)
    237c:	df000604 	addi	fp,sp,24
    2380:	e13ffc15 	stw	r4,-16(fp)
    2384:	e17ffd15 	stw	r5,-12(fp)
    2388:	3007883a 	mov	r3,r6
    238c:	3805883a 	mov	r2,r7
    2390:	e0fffe05 	stb	r3,-8(fp)
    2394:	e0bfff05 	stb	r2,-4(fp)
    INT16U  *ptbl;
#endif


#if OS_LOWEST_PRIO <= 63
    y    = OSUnMapTbl[pevent->OSEventGrp];              /* Find HPT waiting for message                */
    2398:	e0bffc17 	ldw	r2,-16(fp)
    239c:	10800283 	ldbu	r2,10(r2)
    23a0:	10c03fcc 	andi	r3,r2,255
    23a4:	00800074 	movhi	r2,1
    23a8:	10b4d004 	addi	r2,r2,-11456
    23ac:	10c5883a 	add	r2,r2,r3
    23b0:	10800003 	ldbu	r2,0(r2)
    23b4:	e0bffa05 	stb	r2,-24(fp)
    x    = OSUnMapTbl[pevent->OSEventTbl[y]];
    23b8:	e0bffa03 	ldbu	r2,-24(fp)
    23bc:	e0fffc17 	ldw	r3,-16(fp)
    23c0:	1885883a 	add	r2,r3,r2
    23c4:	10800204 	addi	r2,r2,8
    23c8:	108000c3 	ldbu	r2,3(r2)
    23cc:	10c03fcc 	andi	r3,r2,255
    23d0:	00800074 	movhi	r2,1
    23d4:	10b4d004 	addi	r2,r2,-11456
    23d8:	10c5883a 	add	r2,r2,r3
    23dc:	10800003 	ldbu	r2,0(r2)
    23e0:	e0bffa45 	stb	r2,-23(fp)
    prio = (INT8U)((y << 3) + x);                       /* Find priority of task getting the msg       */
    23e4:	e0bffa03 	ldbu	r2,-24(fp)
    23e8:	100490fa 	slli	r2,r2,3
    23ec:	1007883a 	mov	r3,r2
    23f0:	e0bffa43 	ldbu	r2,-23(fp)
    23f4:	1885883a 	add	r2,r3,r2
    23f8:	e0bffa85 	stb	r2,-22(fp)
        x = OSUnMapTbl[(*ptbl >> 8) & 0xFF] + 8;
    }
    prio = (INT8U)((y << 4) + x);                       /* Find priority of task getting the msg       */
#endif

    ptcb                  =  OSTCBPrioTbl[prio];        /* Point to this task's OS_TCB                 */
    23fc:	e0fffa83 	ldbu	r3,-22(fp)
    2400:	00800074 	movhi	r2,1
    2404:	109f5704 	addi	r2,r2,32092
    2408:	18c7883a 	add	r3,r3,r3
    240c:	18c7883a 	add	r3,r3,r3
    2410:	10c5883a 	add	r2,r2,r3
    2414:	10800017 	ldw	r2,0(r2)
    2418:	e0bffb15 	stw	r2,-20(fp)
    ptcb->OSTCBDly        =  0;                         /* Prevent OSTimeTick() from readying task     */
    241c:	e0bffb17 	ldw	r2,-20(fp)
    2420:	10000b8d 	sth	zero,46(r2)
#if ((OS_Q_EN > 0) && (OS_MAX_QS > 0)) || (OS_MBOX_EN > 0)
    ptcb->OSTCBMsg        =  pmsg;                      /* Send message directly to waiting task       */
    2424:	e0bffb17 	ldw	r2,-20(fp)
    2428:	e0fffd17 	ldw	r3,-12(fp)
    242c:	10c00915 	stw	r3,36(r2)
#else
    pmsg                  =  pmsg;                      /* Prevent compiler warning if not used        */
#endif
    ptcb->OSTCBStat      &= ~msk;                       /* Clear bit associated with event type        */
    2430:	e0bffb17 	ldw	r2,-20(fp)
    2434:	10800c03 	ldbu	r2,48(r2)
    2438:	1007883a 	mov	r3,r2
    243c:	e0bffe03 	ldbu	r2,-8(fp)
    2440:	0084303a 	nor	r2,zero,r2
    2444:	1884703a 	and	r2,r3,r2
    2448:	1007883a 	mov	r3,r2
    244c:	e0bffb17 	ldw	r2,-20(fp)
    2450:	10c00c05 	stb	r3,48(r2)
    ptcb->OSTCBStatPend   =  pend_stat;                 /* Set pend status of post or abort            */
    2454:	e0bffb17 	ldw	r2,-20(fp)
    2458:	e0ffff03 	ldbu	r3,-4(fp)
    245c:	10c00c45 	stb	r3,49(r2)
                                                        /* See if task is ready (could be susp'd)      */
    if ((ptcb->OSTCBStat &   OS_STAT_SUSPEND) == OS_STAT_RDY) {
    2460:	e0bffb17 	ldw	r2,-20(fp)
    2464:	10800c03 	ldbu	r2,48(r2)
    2468:	10803fcc 	andi	r2,r2,255
    246c:	1080020c 	andi	r2,r2,8
    2470:	1000111e 	bne	r2,zero,24b8 <OS_EventTaskRdy+0x148>
        OSRdyGrp         |=  ptcb->OSTCBBitY;           /* Put task in the ready to run list           */
    2474:	e0bffb17 	ldw	r2,-20(fp)
    2478:	10c00d83 	ldbu	r3,54(r2)
    247c:	d0a6de03 	ldbu	r2,-25736(gp)
    2480:	1884b03a 	or	r2,r3,r2
    2484:	d0a6de05 	stb	r2,-25736(gp)
        OSRdyTbl[y]      |=  ptcb->OSTCBBitX;
    2488:	e0fffa03 	ldbu	r3,-24(fp)
    248c:	e13ffa03 	ldbu	r4,-24(fp)
    2490:	d0a6de44 	addi	r2,gp,-25735
    2494:	2085883a 	add	r2,r4,r2
    2498:	11000003 	ldbu	r4,0(r2)
    249c:	e0bffb17 	ldw	r2,-20(fp)
    24a0:	10800d43 	ldbu	r2,53(r2)
    24a4:	2084b03a 	or	r2,r4,r2
    24a8:	1009883a 	mov	r4,r2
    24ac:	d0a6de44 	addi	r2,gp,-25735
    24b0:	1885883a 	add	r2,r3,r2
    24b4:	11000005 	stb	r4,0(r2)
    }

    OS_EventTaskRemove(ptcb, pevent);                   /* Remove this task from event   wait list     */
    24b8:	e13ffb17 	ldw	r4,-20(fp)
    24bc:	e17ffc17 	ldw	r5,-16(fp)
    24c0:	00027600 	call	2760 <OS_EventTaskRemove>
#if (OS_EVENT_MULTI_EN > 0)
    if (ptcb->OSTCBEventMultiPtr != (OS_EVENT **)0) {   /* Remove this task from events' wait lists    */
    24c4:	e0bffb17 	ldw	r2,-20(fp)
    24c8:	10800817 	ldw	r2,32(r2)
    24cc:	10000826 	beq	r2,zero,24f0 <OS_EventTaskRdy+0x180>
        OS_EventTaskRemoveMulti(ptcb, ptcb->OSTCBEventMultiPtr);
    24d0:	e0bffb17 	ldw	r2,-20(fp)
    24d4:	10800817 	ldw	r2,32(r2)
    24d8:	e13ffb17 	ldw	r4,-20(fp)
    24dc:	100b883a 	mov	r5,r2
    24e0:	00028140 	call	2814 <OS_EventTaskRemoveMulti>
        ptcb->OSTCBEventPtr       = (OS_EVENT  *)pevent;/* Return event as first multi-pend event ready*/
    24e4:	e0bffb17 	ldw	r2,-20(fp)
    24e8:	e0fffc17 	ldw	r3,-16(fp)
    24ec:	10c00715 	stw	r3,28(r2)
    }
#endif

    return (prio);
    24f0:	e0bffa83 	ldbu	r2,-22(fp)
}
    24f4:	e037883a 	mov	sp,fp
    24f8:	dfc00117 	ldw	ra,4(sp)
    24fc:	df000017 	ldw	fp,0(sp)
    2500:	dec00204 	addi	sp,sp,8
    2504:	f800283a 	ret

00002508 <OS_EventTaskWait>:
* Note       : This function is INTERNAL to uC/OS-II and your application should not call it.
*********************************************************************************************************
*/
#if (OS_EVENT_EN)
void  OS_EventTaskWait (OS_EVENT *pevent)
{
    2508:	defffd04 	addi	sp,sp,-12
    250c:	df000215 	stw	fp,8(sp)
    2510:	df000204 	addi	fp,sp,8
    2514:	e13fff15 	stw	r4,-4(fp)
    INT8U  y;


    OSTCBCur->OSTCBEventPtr               = pevent;                 /* Store ptr to ECB in TCB         */
    2518:	d0a6e117 	ldw	r2,-25724(gp)
    251c:	e0ffff17 	ldw	r3,-4(fp)
    2520:	10c00715 	stw	r3,28(r2)

    pevent->OSEventTbl[OSTCBCur->OSTCBY] |= OSTCBCur->OSTCBBitX;    /* Put task in waiting list        */
    2524:	d0a6e117 	ldw	r2,-25724(gp)
    2528:	10800d03 	ldbu	r2,52(r2)
    252c:	10803fcc 	andi	r2,r2,255
    2530:	d0e6e117 	ldw	r3,-25724(gp)
    2534:	18c00d03 	ldbu	r3,52(r3)
    2538:	18c03fcc 	andi	r3,r3,255
    253c:	e13fff17 	ldw	r4,-4(fp)
    2540:	20c7883a 	add	r3,r4,r3
    2544:	18c00204 	addi	r3,r3,8
    2548:	190000c3 	ldbu	r4,3(r3)
    254c:	d0e6e117 	ldw	r3,-25724(gp)
    2550:	18c00d43 	ldbu	r3,53(r3)
    2554:	20c6b03a 	or	r3,r4,r3
    2558:	1809883a 	mov	r4,r3
    255c:	e0ffff17 	ldw	r3,-4(fp)
    2560:	1885883a 	add	r2,r3,r2
    2564:	10800204 	addi	r2,r2,8
    2568:	110000c5 	stb	r4,3(r2)
    pevent->OSEventGrp                   |= OSTCBCur->OSTCBBitY;
    256c:	e0bfff17 	ldw	r2,-4(fp)
    2570:	10c00283 	ldbu	r3,10(r2)
    2574:	d0a6e117 	ldw	r2,-25724(gp)
    2578:	10800d83 	ldbu	r2,54(r2)
    257c:	1884b03a 	or	r2,r3,r2
    2580:	1007883a 	mov	r3,r2
    2584:	e0bfff17 	ldw	r2,-4(fp)
    2588:	10c00285 	stb	r3,10(r2)

    y             =  OSTCBCur->OSTCBY;            /* Task no longer ready                              */
    258c:	d0a6e117 	ldw	r2,-25724(gp)
    2590:	10800d03 	ldbu	r2,52(r2)
    2594:	e0bffe05 	stb	r2,-8(fp)
    OSRdyTbl[y]  &= ~OSTCBCur->OSTCBBitX;
    2598:	e0fffe03 	ldbu	r3,-8(fp)
    259c:	e13ffe03 	ldbu	r4,-8(fp)
    25a0:	d0a6de44 	addi	r2,gp,-25735
    25a4:	2085883a 	add	r2,r4,r2
    25a8:	10800003 	ldbu	r2,0(r2)
    25ac:	1009883a 	mov	r4,r2
    25b0:	d0a6e117 	ldw	r2,-25724(gp)
    25b4:	10800d43 	ldbu	r2,53(r2)
    25b8:	0084303a 	nor	r2,zero,r2
    25bc:	2084703a 	and	r2,r4,r2
    25c0:	1009883a 	mov	r4,r2
    25c4:	d0a6de44 	addi	r2,gp,-25735
    25c8:	1885883a 	add	r2,r3,r2
    25cc:	11000005 	stb	r4,0(r2)
    if (OSRdyTbl[y] == 0) {
    25d0:	e0fffe03 	ldbu	r3,-8(fp)
    25d4:	d0a6de44 	addi	r2,gp,-25735
    25d8:	1885883a 	add	r2,r3,r2
    25dc:	10800003 	ldbu	r2,0(r2)
    25e0:	10803fcc 	andi	r2,r2,255
    25e4:	1000071e 	bne	r2,zero,2604 <OS_EventTaskWait+0xfc>
        OSRdyGrp &= ~OSTCBCur->OSTCBBitY;         /* Clear event grp bit if this was only task pending */
    25e8:	d0a6e117 	ldw	r2,-25724(gp)
    25ec:	10800d83 	ldbu	r2,54(r2)
    25f0:	0084303a 	nor	r2,zero,r2
    25f4:	1007883a 	mov	r3,r2
    25f8:	d0a6de03 	ldbu	r2,-25736(gp)
    25fc:	1884703a 	and	r2,r3,r2
    2600:	d0a6de05 	stb	r2,-25736(gp)
    }
}
    2604:	e037883a 	mov	sp,fp
    2608:	df000017 	ldw	fp,0(sp)
    260c:	dec00104 	addi	sp,sp,4
    2610:	f800283a 	ret

00002614 <OS_EventTaskWaitMulti>:
* Note       : This function is INTERNAL to uC/OS-II and your application should not call it.
*********************************************************************************************************
*/
#if ((OS_EVENT_EN) && (OS_EVENT_MULTI_EN > 0))
void  OS_EventTaskWaitMulti (OS_EVENT **pevents_wait)
{
    2614:	defffb04 	addi	sp,sp,-20
    2618:	df000415 	stw	fp,16(sp)
    261c:	df000404 	addi	fp,sp,16
    2620:	e13fff15 	stw	r4,-4(fp)
    OS_EVENT **pevents;
    OS_EVENT  *pevent;
    INT8U      y;


    OSTCBCur->OSTCBEventPtr      = (OS_EVENT  *)0;
    2624:	d0a6e117 	ldw	r2,-25724(gp)
    2628:	10000715 	stw	zero,28(r2)
    OSTCBCur->OSTCBEventMultiPtr = (OS_EVENT **)pevents_wait;       /* Store ptr to ECBs in TCB        */
    262c:	d0a6e117 	ldw	r2,-25724(gp)
    2630:	e0ffff17 	ldw	r3,-4(fp)
    2634:	10c00815 	stw	r3,32(r2)

    pevents =  pevents_wait;
    2638:	e0bfff17 	ldw	r2,-4(fp)
    263c:	e0bffc15 	stw	r2,-16(fp)
    pevent  = *pevents;
    2640:	e0bffc17 	ldw	r2,-16(fp)
    2644:	10800017 	ldw	r2,0(r2)
    2648:	e0bffd15 	stw	r2,-12(fp)
    while (pevent != (OS_EVENT *)0) {                               /* Put task in waiting lists       */
    264c:	00002006 	br	26d0 <OS_EventTaskWaitMulti+0xbc>
        pevent->OSEventTbl[OSTCBCur->OSTCBY] |= OSTCBCur->OSTCBBitX;
    2650:	d0a6e117 	ldw	r2,-25724(gp)
    2654:	10800d03 	ldbu	r2,52(r2)
    2658:	10803fcc 	andi	r2,r2,255
    265c:	d0e6e117 	ldw	r3,-25724(gp)
    2660:	18c00d03 	ldbu	r3,52(r3)
    2664:	18c03fcc 	andi	r3,r3,255
    2668:	e13ffd17 	ldw	r4,-12(fp)
    266c:	20c7883a 	add	r3,r4,r3
    2670:	18c00204 	addi	r3,r3,8
    2674:	190000c3 	ldbu	r4,3(r3)
    2678:	d0e6e117 	ldw	r3,-25724(gp)
    267c:	18c00d43 	ldbu	r3,53(r3)
    2680:	20c6b03a 	or	r3,r4,r3
    2684:	1809883a 	mov	r4,r3
    2688:	e0fffd17 	ldw	r3,-12(fp)
    268c:	1885883a 	add	r2,r3,r2
    2690:	10800204 	addi	r2,r2,8
    2694:	110000c5 	stb	r4,3(r2)
        pevent->OSEventGrp                   |= OSTCBCur->OSTCBBitY;
    2698:	e0bffd17 	ldw	r2,-12(fp)
    269c:	10c00283 	ldbu	r3,10(r2)
    26a0:	d0a6e117 	ldw	r2,-25724(gp)
    26a4:	10800d83 	ldbu	r2,54(r2)
    26a8:	1884b03a 	or	r2,r3,r2
    26ac:	1007883a 	mov	r3,r2
    26b0:	e0bffd17 	ldw	r2,-12(fp)
    26b4:	10c00285 	stb	r3,10(r2)
        pevents++;
    26b8:	e0bffc17 	ldw	r2,-16(fp)
    26bc:	10800104 	addi	r2,r2,4
    26c0:	e0bffc15 	stw	r2,-16(fp)
        pevent = *pevents;
    26c4:	e0bffc17 	ldw	r2,-16(fp)
    26c8:	10800017 	ldw	r2,0(r2)
    26cc:	e0bffd15 	stw	r2,-12(fp)
    OSTCBCur->OSTCBEventPtr      = (OS_EVENT  *)0;
    OSTCBCur->OSTCBEventMultiPtr = (OS_EVENT **)pevents_wait;       /* Store ptr to ECBs in TCB        */

    pevents =  pevents_wait;
    pevent  = *pevents;
    while (pevent != (OS_EVENT *)0) {                               /* Put task in waiting lists       */
    26d0:	e0bffd17 	ldw	r2,-12(fp)
    26d4:	103fde1e 	bne	r2,zero,2650 <OS_EventTaskWaitMulti+0x3c>
        pevent->OSEventGrp                   |= OSTCBCur->OSTCBBitY;
        pevents++;
        pevent = *pevents;
    }

    y             =  OSTCBCur->OSTCBY;            /* Task no longer ready                              */
    26d8:	d0a6e117 	ldw	r2,-25724(gp)
    26dc:	10800d03 	ldbu	r2,52(r2)
    26e0:	e0bffe05 	stb	r2,-8(fp)
    OSRdyTbl[y]  &= ~OSTCBCur->OSTCBBitX;
    26e4:	e0fffe03 	ldbu	r3,-8(fp)
    26e8:	e13ffe03 	ldbu	r4,-8(fp)
    26ec:	d0a6de44 	addi	r2,gp,-25735
    26f0:	2085883a 	add	r2,r4,r2
    26f4:	10800003 	ldbu	r2,0(r2)
    26f8:	1009883a 	mov	r4,r2
    26fc:	d0a6e117 	ldw	r2,-25724(gp)
    2700:	10800d43 	ldbu	r2,53(r2)
    2704:	0084303a 	nor	r2,zero,r2
    2708:	2084703a 	and	r2,r4,r2
    270c:	1009883a 	mov	r4,r2
    2710:	d0a6de44 	addi	r2,gp,-25735
    2714:	1885883a 	add	r2,r3,r2
    2718:	11000005 	stb	r4,0(r2)
    if (OSRdyTbl[y] == 0) {
    271c:	e0fffe03 	ldbu	r3,-8(fp)
    2720:	d0a6de44 	addi	r2,gp,-25735
    2724:	1885883a 	add	r2,r3,r2
    2728:	10800003 	ldbu	r2,0(r2)
    272c:	10803fcc 	andi	r2,r2,255
    2730:	1000071e 	bne	r2,zero,2750 <OS_EventTaskWaitMulti+0x13c>
        OSRdyGrp &= ~OSTCBCur->OSTCBBitY;         /* Clear event grp bit if this was only task pending */
    2734:	d0a6e117 	ldw	r2,-25724(gp)
    2738:	10800d83 	ldbu	r2,54(r2)
    273c:	0084303a 	nor	r2,zero,r2
    2740:	1007883a 	mov	r3,r2
    2744:	d0a6de03 	ldbu	r2,-25736(gp)
    2748:	1884703a 	and	r2,r3,r2
    274c:	d0a6de05 	stb	r2,-25736(gp)
    }
}
    2750:	e037883a 	mov	sp,fp
    2754:	df000017 	ldw	fp,0(sp)
    2758:	dec00104 	addi	sp,sp,4
    275c:	f800283a 	ret

00002760 <OS_EventTaskRemove>:
*********************************************************************************************************
*/
#if (OS_EVENT_EN)
void  OS_EventTaskRemove (OS_TCB   *ptcb,
                          OS_EVENT *pevent)
{
    2760:	defffc04 	addi	sp,sp,-16
    2764:	df000315 	stw	fp,12(sp)
    2768:	df000304 	addi	fp,sp,12
    276c:	e13ffe15 	stw	r4,-8(fp)
    2770:	e17fff15 	stw	r5,-4(fp)
    INT8U  y;


    y                       =  ptcb->OSTCBY;
    2774:	e0bffe17 	ldw	r2,-8(fp)
    2778:	10800d03 	ldbu	r2,52(r2)
    277c:	e0bffd05 	stb	r2,-12(fp)
    pevent->OSEventTbl[y]  &= ~ptcb->OSTCBBitX;         /* Remove task from wait list                  */
    2780:	e0bffd03 	ldbu	r2,-12(fp)
    2784:	e0fffd03 	ldbu	r3,-12(fp)
    2788:	e13fff17 	ldw	r4,-4(fp)
    278c:	20c7883a 	add	r3,r4,r3
    2790:	18c00204 	addi	r3,r3,8
    2794:	18c000c3 	ldbu	r3,3(r3)
    2798:	1809883a 	mov	r4,r3
    279c:	e0fffe17 	ldw	r3,-8(fp)
    27a0:	18c00d43 	ldbu	r3,53(r3)
    27a4:	00c6303a 	nor	r3,zero,r3
    27a8:	20c6703a 	and	r3,r4,r3
    27ac:	1809883a 	mov	r4,r3
    27b0:	e0ffff17 	ldw	r3,-4(fp)
    27b4:	1885883a 	add	r2,r3,r2
    27b8:	10800204 	addi	r2,r2,8
    27bc:	110000c5 	stb	r4,3(r2)
    if (pevent->OSEventTbl[y] == 0) {
    27c0:	e0bffd03 	ldbu	r2,-12(fp)
    27c4:	e0ffff17 	ldw	r3,-4(fp)
    27c8:	1885883a 	add	r2,r3,r2
    27cc:	10800204 	addi	r2,r2,8
    27d0:	108000c3 	ldbu	r2,3(r2)
    27d4:	10803fcc 	andi	r2,r2,255
    27d8:	10000a1e 	bne	r2,zero,2804 <OS_EventTaskRemove+0xa4>
        pevent->OSEventGrp &= ~ptcb->OSTCBBitY;
    27dc:	e0bfff17 	ldw	r2,-4(fp)
    27e0:	10800283 	ldbu	r2,10(r2)
    27e4:	1007883a 	mov	r3,r2
    27e8:	e0bffe17 	ldw	r2,-8(fp)
    27ec:	10800d83 	ldbu	r2,54(r2)
    27f0:	0084303a 	nor	r2,zero,r2
    27f4:	1884703a 	and	r2,r3,r2
    27f8:	1007883a 	mov	r3,r2
    27fc:	e0bfff17 	ldw	r2,-4(fp)
    2800:	10c00285 	stb	r3,10(r2)
    }
}
    2804:	e037883a 	mov	sp,fp
    2808:	df000017 	ldw	fp,0(sp)
    280c:	dec00104 	addi	sp,sp,4
    2810:	f800283a 	ret

00002814 <OS_EventTaskRemoveMulti>:
*********************************************************************************************************
*/
#if ((OS_EVENT_EN) && (OS_EVENT_MULTI_EN > 0))
void  OS_EventTaskRemoveMulti (OS_TCB    *ptcb,
                               OS_EVENT **pevents_multi)
{
    2814:	defffa04 	addi	sp,sp,-24
    2818:	df000515 	stw	fp,20(sp)
    281c:	df000504 	addi	fp,sp,20
    2820:	e13ffe15 	stw	r4,-8(fp)
    2824:	e17fff15 	stw	r5,-4(fp)
    INT16U     bity;
    INT16U     bitx;
#endif


    y       =  ptcb->OSTCBY;
    2828:	e0bffe17 	ldw	r2,-8(fp)
    282c:	10800d03 	ldbu	r2,52(r2)
    2830:	e0bffd05 	stb	r2,-12(fp)
    bity    =  ptcb->OSTCBBitY;
    2834:	e0bffe17 	ldw	r2,-8(fp)
    2838:	10800d83 	ldbu	r2,54(r2)
    283c:	e0bffd45 	stb	r2,-11(fp)
    bitx    =  ptcb->OSTCBBitX;
    2840:	e0bffe17 	ldw	r2,-8(fp)
    2844:	10800d43 	ldbu	r2,53(r2)
    2848:	e0bffd85 	stb	r2,-10(fp)
    pevents =  pevents_multi;
    284c:	e0bfff17 	ldw	r2,-4(fp)
    2850:	e0bffb15 	stw	r2,-20(fp)
    pevent  = *pevents;
    2854:	e0bffb17 	ldw	r2,-20(fp)
    2858:	10800017 	ldw	r2,0(r2)
    285c:	e0bffc15 	stw	r2,-16(fp)
    while (pevent != (OS_EVENT *)0) {                   /* Remove task from all events' wait lists     */
    2860:	00002506 	br	28f8 <OS_EventTaskRemoveMulti+0xe4>
        pevent->OSEventTbl[y]  &= ~bitx;
    2864:	e0bffd03 	ldbu	r2,-12(fp)
    2868:	e0fffd03 	ldbu	r3,-12(fp)
    286c:	e13ffc17 	ldw	r4,-16(fp)
    2870:	20c7883a 	add	r3,r4,r3
    2874:	18c00204 	addi	r3,r3,8
    2878:	18c000c3 	ldbu	r3,3(r3)
    287c:	1809883a 	mov	r4,r3
    2880:	e0fffd83 	ldbu	r3,-10(fp)
    2884:	00c6303a 	nor	r3,zero,r3
    2888:	20c6703a 	and	r3,r4,r3
    288c:	1809883a 	mov	r4,r3
    2890:	e0fffc17 	ldw	r3,-16(fp)
    2894:	1885883a 	add	r2,r3,r2
    2898:	10800204 	addi	r2,r2,8
    289c:	110000c5 	stb	r4,3(r2)
        if (pevent->OSEventTbl[y] == 0) {
    28a0:	e0bffd03 	ldbu	r2,-12(fp)
    28a4:	e0fffc17 	ldw	r3,-16(fp)
    28a8:	1885883a 	add	r2,r3,r2
    28ac:	10800204 	addi	r2,r2,8
    28b0:	108000c3 	ldbu	r2,3(r2)
    28b4:	10803fcc 	andi	r2,r2,255
    28b8:	1000091e 	bne	r2,zero,28e0 <OS_EventTaskRemoveMulti+0xcc>
            pevent->OSEventGrp &= ~bity;
    28bc:	e0bffc17 	ldw	r2,-16(fp)
    28c0:	10800283 	ldbu	r2,10(r2)
    28c4:	1007883a 	mov	r3,r2
    28c8:	e0bffd43 	ldbu	r2,-11(fp)
    28cc:	0084303a 	nor	r2,zero,r2
    28d0:	1884703a 	and	r2,r3,r2
    28d4:	1007883a 	mov	r3,r2
    28d8:	e0bffc17 	ldw	r2,-16(fp)
    28dc:	10c00285 	stb	r3,10(r2)
        }
        pevents++;
    28e0:	e0bffb17 	ldw	r2,-20(fp)
    28e4:	10800104 	addi	r2,r2,4
    28e8:	e0bffb15 	stw	r2,-20(fp)
        pevent = *pevents;
    28ec:	e0bffb17 	ldw	r2,-20(fp)
    28f0:	10800017 	ldw	r2,0(r2)
    28f4:	e0bffc15 	stw	r2,-16(fp)
    y       =  ptcb->OSTCBY;
    bity    =  ptcb->OSTCBBitY;
    bitx    =  ptcb->OSTCBBitX;
    pevents =  pevents_multi;
    pevent  = *pevents;
    while (pevent != (OS_EVENT *)0) {                   /* Remove task from all events' wait lists     */
    28f8:	e0bffc17 	ldw	r2,-16(fp)
    28fc:	103fd91e 	bne	r2,zero,2864 <OS_EventTaskRemoveMulti+0x50>
            pevent->OSEventGrp &= ~bity;
        }
        pevents++;
        pevent = *pevents;
    }
}
    2900:	e037883a 	mov	sp,fp
    2904:	df000017 	ldw	fp,0(sp)
    2908:	dec00104 	addi	sp,sp,4
    290c:	f800283a 	ret

00002910 <OS_EventWaitListInit>:
* Note       : This function is INTERNAL to uC/OS-II and your application should not call it.
*********************************************************************************************************
*/
#if (OS_EVENT_EN)
void  OS_EventWaitListInit (OS_EVENT *pevent)
{
    2910:	defffc04 	addi	sp,sp,-16
    2914:	df000315 	stw	fp,12(sp)
    2918:	df000304 	addi	fp,sp,12
    291c:	e13fff15 	stw	r4,-4(fp)
    INT16U *ptbl;
#endif
    INT8U   i;


    pevent->OSEventGrp = 0;                      /* No task waiting on event                           */
    2920:	e0bfff17 	ldw	r2,-4(fp)
    2924:	10000285 	stb	zero,10(r2)
    ptbl               = &pevent->OSEventTbl[0];
    2928:	e0bfff17 	ldw	r2,-4(fp)
    292c:	108002c4 	addi	r2,r2,11
    2930:	e0bffd15 	stw	r2,-12(fp)

    for (i = 0; i < OS_EVENT_TBL_SIZE; i++) {
    2934:	e03ffe05 	stb	zero,-8(fp)
    2938:	00000706 	br	2958 <OS_EventWaitListInit+0x48>
        *ptbl++ = 0;
    293c:	e0bffd17 	ldw	r2,-12(fp)
    2940:	10c00044 	addi	r3,r2,1
    2944:	e0fffd15 	stw	r3,-12(fp)
    2948:	10000005 	stb	zero,0(r2)


    pevent->OSEventGrp = 0;                      /* No task waiting on event                           */
    ptbl               = &pevent->OSEventTbl[0];

    for (i = 0; i < OS_EVENT_TBL_SIZE; i++) {
    294c:	e0bffe03 	ldbu	r2,-8(fp)
    2950:	10800044 	addi	r2,r2,1
    2954:	e0bffe05 	stb	r2,-8(fp)
    2958:	e0bffe03 	ldbu	r2,-8(fp)
    295c:	108000f0 	cmpltui	r2,r2,3
    2960:	103ff61e 	bne	r2,zero,293c <OS_EventWaitListInit+0x2c>
        *ptbl++ = 0;
    }
}
    2964:	e037883a 	mov	sp,fp
    2968:	df000017 	ldw	fp,0(sp)
    296c:	dec00104 	addi	sp,sp,4
    2970:	f800283a 	ret

00002974 <OS_InitEventList>:
* Returns    : none
*********************************************************************************************************
*/

static  void  OS_InitEventList (void)
{
    2974:	defffb04 	addi	sp,sp,-20
    2978:	dfc00415 	stw	ra,16(sp)
    297c:	df000315 	stw	fp,12(sp)
    2980:	df000304 	addi	fp,sp,12
    INT16U     i;
    OS_EVENT  *pevent1;
    OS_EVENT  *pevent2;


    OS_MemClr((INT8U *)&OSEventTbl[0], sizeof(OSEventTbl)); /* Clear the event table                   */
    2984:	01000074 	movhi	r4,1
    2988:	211b4304 	addi	r4,r4,27916
    298c:	0142d004 	movi	r5,2880
    2990:	0002cd40 	call	2cd4 <OS_MemClr>
    pevent1 = &OSEventTbl[0];
    2994:	00800074 	movhi	r2,1
    2998:	109b4304 	addi	r2,r2,27916
    299c:	e0bffe15 	stw	r2,-8(fp)
    pevent2 = &OSEventTbl[1];
    29a0:	00800074 	movhi	r2,1
    29a4:	109b4f04 	addi	r2,r2,27964
    29a8:	e0bfff15 	stw	r2,-4(fp)
    for (i = 0; i < (OS_MAX_EVENTS - 1); i++) {             /* Init. list of free EVENT control blocks */
    29ac:	e03ffd0d 	sth	zero,-12(fp)
    29b0:	00001306 	br	2a00 <OS_InitEventList+0x8c>
        pevent1->OSEventType    = OS_EVENT_TYPE_UNUSED;
    29b4:	e0bffe17 	ldw	r2,-8(fp)
    29b8:	10000005 	stb	zero,0(r2)
        pevent1->OSEventPtr     = pevent2;
    29bc:	e0bffe17 	ldw	r2,-8(fp)
    29c0:	e0ffff17 	ldw	r3,-4(fp)
    29c4:	10c00115 	stw	r3,4(r2)
#if OS_EVENT_NAME_SIZE > 1
        pevent1->OSEventName[0] = '?';                      /* Unknown name                            */
    29c8:	e0bffe17 	ldw	r2,-8(fp)
    29cc:	00c00fc4 	movi	r3,63
    29d0:	10c00385 	stb	r3,14(r2)
        pevent1->OSEventName[1] = OS_ASCII_NUL;
    29d4:	e0bffe17 	ldw	r2,-8(fp)
    29d8:	100003c5 	stb	zero,15(r2)
#endif
        pevent1++;
    29dc:	e0bffe17 	ldw	r2,-8(fp)
    29e0:	10800c04 	addi	r2,r2,48
    29e4:	e0bffe15 	stw	r2,-8(fp)
        pevent2++;
    29e8:	e0bfff17 	ldw	r2,-4(fp)
    29ec:	10800c04 	addi	r2,r2,48
    29f0:	e0bfff15 	stw	r2,-4(fp)


    OS_MemClr((INT8U *)&OSEventTbl[0], sizeof(OSEventTbl)); /* Clear the event table                   */
    pevent1 = &OSEventTbl[0];
    pevent2 = &OSEventTbl[1];
    for (i = 0; i < (OS_MAX_EVENTS - 1); i++) {             /* Init. list of free EVENT control blocks */
    29f4:	e0bffd0b 	ldhu	r2,-12(fp)
    29f8:	10800044 	addi	r2,r2,1
    29fc:	e0bffd0d 	sth	r2,-12(fp)
    2a00:	e0bffd0b 	ldhu	r2,-12(fp)
    2a04:	10800ef0 	cmpltui	r2,r2,59
    2a08:	103fea1e 	bne	r2,zero,29b4 <OS_InitEventList+0x40>
        pevent1->OSEventName[1] = OS_ASCII_NUL;
#endif
        pevent1++;
        pevent2++;
    }
    pevent1->OSEventType            = OS_EVENT_TYPE_UNUSED;
    2a0c:	e0bffe17 	ldw	r2,-8(fp)
    2a10:	10000005 	stb	zero,0(r2)
    pevent1->OSEventPtr             = (OS_EVENT *)0;
    2a14:	e0bffe17 	ldw	r2,-8(fp)
    2a18:	10000115 	stw	zero,4(r2)
#if OS_EVENT_NAME_SIZE > 1
    pevent1->OSEventName[0]         = '?';
    2a1c:	e0bffe17 	ldw	r2,-8(fp)
    2a20:	00c00fc4 	movi	r3,63
    2a24:	10c00385 	stb	r3,14(r2)
    pevent1->OSEventName[1]         = OS_ASCII_NUL;
    2a28:	e0bffe17 	ldw	r2,-8(fp)
    2a2c:	100003c5 	stb	zero,15(r2)
#endif
    OSEventFreeList                 = &OSEventTbl[0];
    2a30:	00800074 	movhi	r2,1
    2a34:	109b4304 	addi	r2,r2,27916
    2a38:	d0a6df15 	stw	r2,-25732(gp)
    OSEventFreeList->OSEventName[0] = '?';                  /* Unknown name                            */
    OSEventFreeList->OSEventName[1] = OS_ASCII_NUL;
#endif
#endif
#endif
}
    2a3c:	e037883a 	mov	sp,fp
    2a40:	dfc00117 	ldw	ra,4(sp)
    2a44:	df000017 	ldw	fp,0(sp)
    2a48:	dec00204 	addi	sp,sp,8
    2a4c:	f800283a 	ret

00002a50 <OS_InitMisc>:
* Returns    : none
*********************************************************************************************************
*/

static  void  OS_InitMisc (void)
{
    2a50:	deffff04 	addi	sp,sp,-4
    2a54:	df000015 	stw	fp,0(sp)
    2a58:	d839883a 	mov	fp,sp
#if OS_TIME_GET_SET_EN > 0
    OSTime        = 0L;                                    /* Clear the 32-bit system clock            */
    2a5c:	d026e215 	stw	zero,-25720(gp)
#endif

    OSIntNesting  = 0;                                     /* Clear the interrupt nesting counter      */
    2a60:	d026e005 	stb	zero,-25728(gp)
    OSLockNesting = 0;                                     /* Clear the scheduling lock counter        */
    2a64:	d026d205 	stb	zero,-25784(gp)

    OSTaskCtr     = 0;                                     /* Clear the number of tasks                */
    2a68:	d026da45 	stb	zero,-25751(gp)

    OSRunning     = OS_FALSE;                              /* Indicate that multitasking not started   */
    2a6c:	d026d245 	stb	zero,-25783(gp)

    OSCtxSwCtr    = 0;                                     /* Clear the context switch counter         */
    2a70:	d026d715 	stw	zero,-25764(gp)
    OSIdleCtr     = 0L;                                    /* Clear the 32-bit idle counter            */
    2a74:	d026d315 	stw	zero,-25780(gp)

#if OS_TASK_STAT_EN > 0
    OSIdleCtrRun  = 0L;
    2a78:	d026e515 	stw	zero,-25708(gp)
    OSIdleCtrMax  = 0L;
    2a7c:	d026d815 	stw	zero,-25760(gp)
    OSStatRdy     = OS_FALSE;                              /* Statistic task is not ready              */
    2a80:	d026e405 	stb	zero,-25712(gp)
#endif
}
    2a84:	e037883a 	mov	sp,fp
    2a88:	df000017 	ldw	fp,0(sp)
    2a8c:	dec00104 	addi	sp,sp,4
    2a90:	f800283a 	ret

00002a94 <OS_InitRdyList>:
* Returns    : none
*********************************************************************************************************
*/

static  void  OS_InitRdyList (void)
{
    2a94:	defffd04 	addi	sp,sp,-12
    2a98:	df000215 	stw	fp,8(sp)
    2a9c:	df000204 	addi	fp,sp,8
#else
    INT16U  *prdytbl;
#endif


    OSRdyGrp      = 0;                                     /* Clear the ready list                     */
    2aa0:	d026de05 	stb	zero,-25736(gp)
    prdytbl       = &OSRdyTbl[0];
    2aa4:	d0a6de44 	addi	r2,gp,-25735
    2aa8:	e0bfff15 	stw	r2,-4(fp)
    for (i = 0; i < OS_RDY_TBL_SIZE; i++) {
    2aac:	e03ffe05 	stb	zero,-8(fp)
    2ab0:	00000706 	br	2ad0 <OS_InitRdyList+0x3c>
        *prdytbl++ = 0;
    2ab4:	e0bfff17 	ldw	r2,-4(fp)
    2ab8:	10c00044 	addi	r3,r2,1
    2abc:	e0ffff15 	stw	r3,-4(fp)
    2ac0:	10000005 	stb	zero,0(r2)
#endif


    OSRdyGrp      = 0;                                     /* Clear the ready list                     */
    prdytbl       = &OSRdyTbl[0];
    for (i = 0; i < OS_RDY_TBL_SIZE; i++) {
    2ac4:	e0bffe03 	ldbu	r2,-8(fp)
    2ac8:	10800044 	addi	r2,r2,1
    2acc:	e0bffe05 	stb	r2,-8(fp)
    2ad0:	e0bffe03 	ldbu	r2,-8(fp)
    2ad4:	108000f0 	cmpltui	r2,r2,3
    2ad8:	103ff61e 	bne	r2,zero,2ab4 <OS_InitRdyList+0x20>
        *prdytbl++ = 0;
    }

    OSPrioCur     = 0;
    2adc:	d026d445 	stb	zero,-25775(gp)
    OSPrioHighRdy = 0;
    2ae0:	d026d405 	stb	zero,-25776(gp)

    OSTCBHighRdy  = (OS_TCB *)0;
    2ae4:	d026dc15 	stw	zero,-25744(gp)
    OSTCBCur      = (OS_TCB *)0;
    2ae8:	d026e115 	stw	zero,-25724(gp)
}
    2aec:	e037883a 	mov	sp,fp
    2af0:	df000017 	ldw	fp,0(sp)
    2af4:	dec00104 	addi	sp,sp,4
    2af8:	f800283a 	ret

00002afc <OS_InitTaskIdle>:
* Returns    : none
*********************************************************************************************************
*/

static  void  OS_InitTaskIdle (void)
{
    2afc:	defff804 	addi	sp,sp,-32
    2b00:	dfc00715 	stw	ra,28(sp)
    2b04:	df000615 	stw	fp,24(sp)
    2b08:	df000604 	addi	fp,sp,24
#endif


#if OS_TASK_CREATE_EXT_EN > 0
    #if OS_STK_GROWTH == 1
    (void)OSTaskCreateExt(OS_TaskIdle,
    2b0c:	00bfffd4 	movui	r2,65535
    2b10:	d8800015 	stw	r2,0(sp)
    2b14:	00800074 	movhi	r2,1
    2b18:	10994304 	addi	r2,r2,25868
    2b1c:	d8800115 	stw	r2,4(sp)
    2b20:	00808004 	movi	r2,512
    2b24:	d8800215 	stw	r2,8(sp)
    2b28:	d8000315 	stw	zero,12(sp)
    2b2c:	008000c4 	movi	r2,3
    2b30:	d8800415 	stw	r2,16(sp)
    2b34:	01000034 	movhi	r4,0
    2b38:	210be304 	addi	r4,r4,12172
    2b3c:	000b883a 	mov	r5,zero
    2b40:	01800074 	movhi	r6,1
    2b44:	319b4204 	addi	r6,r6,27912
    2b48:	01c00504 	movi	r7,20
    2b4c:	00079a00 	call	79a0 <OSTaskCreateExt>
                       OS_TASK_IDLE_PRIO);
    #endif
#endif

#if OS_TASK_NAME_SIZE > 14
    OSTaskNameSet(OS_TASK_IDLE_PRIO, (INT8U *)"uC/OS-II Idle", &err);
    2b50:	01000504 	movi	r4,20
    2b54:	01400074 	movhi	r5,1
    2b58:	29751004 	addi	r5,r5,-11200
    2b5c:	e1bfff04 	addi	r6,fp,-4
    2b60:	000826c0 	call	826c <OSTaskNameSet>
#else
#if OS_TASK_NAME_SIZE > 7
    OSTaskNameSet(OS_TASK_IDLE_PRIO, (INT8U *)"OS-Idle", &err);
#endif
#endif
}
    2b64:	e037883a 	mov	sp,fp
    2b68:	dfc00117 	ldw	ra,4(sp)
    2b6c:	df000017 	ldw	fp,0(sp)
    2b70:	dec00204 	addi	sp,sp,8
    2b74:	f800283a 	ret

00002b78 <OS_InitTaskStat>:
*********************************************************************************************************
*/

#if OS_TASK_STAT_EN > 0
static  void  OS_InitTaskStat (void)
{
    2b78:	defff804 	addi	sp,sp,-32
    2b7c:	dfc00715 	stw	ra,28(sp)
    2b80:	df000615 	stw	fp,24(sp)
    2b84:	df000604 	addi	fp,sp,24
#endif


#if OS_TASK_CREATE_EXT_EN > 0
    #if OS_STK_GROWTH == 1
    (void)OSTaskCreateExt(OS_TaskStat,
    2b88:	00bfff94 	movui	r2,65534
    2b8c:	d8800015 	stw	r2,0(sp)
    2b90:	00800074 	movhi	r2,1
    2b94:	1096cb04 	addi	r2,r2,23340
    2b98:	d8800115 	stw	r2,4(sp)
    2b9c:	00808004 	movi	r2,512
    2ba0:	d8800215 	stw	r2,8(sp)
    2ba4:	d8000315 	stw	zero,12(sp)
    2ba8:	008000c4 	movi	r2,3
    2bac:	d8800415 	stw	r2,16(sp)
    2bb0:	01000034 	movhi	r4,0
    2bb4:	210bfa04 	addi	r4,r4,12264
    2bb8:	000b883a 	mov	r5,zero
    2bbc:	01800074 	movhi	r6,1
    2bc0:	3198ca04 	addi	r6,r6,25384
    2bc4:	01c004c4 	movi	r7,19
    2bc8:	00079a00 	call	79a0 <OSTaskCreateExt>
                       OS_TASK_STAT_PRIO);                             /* One higher than the idle task  */
    #endif
#endif

#if OS_TASK_NAME_SIZE > 14
    OSTaskNameSet(OS_TASK_STAT_PRIO, (INT8U *)"uC/OS-II Stat", &err);
    2bcc:	010004c4 	movi	r4,19
    2bd0:	01400074 	movhi	r5,1
    2bd4:	29751404 	addi	r5,r5,-11184
    2bd8:	e1bfff04 	addi	r6,fp,-4
    2bdc:	000826c0 	call	826c <OSTaskNameSet>
#else
#if OS_TASK_NAME_SIZE > 7
    OSTaskNameSet(OS_TASK_STAT_PRIO, (INT8U *)"OS-Stat", &err);
#endif
#endif
}
    2be0:	e037883a 	mov	sp,fp
    2be4:	dfc00117 	ldw	ra,4(sp)
    2be8:	df000017 	ldw	fp,0(sp)
    2bec:	dec00204 	addi	sp,sp,8
    2bf0:	f800283a 	ret

00002bf4 <OS_InitTCBList>:
* Returns    : none
*********************************************************************************************************
*/

static  void  OS_InitTCBList (void)
{
    2bf4:	defffb04 	addi	sp,sp,-20
    2bf8:	dfc00415 	stw	ra,16(sp)
    2bfc:	df000315 	stw	fp,12(sp)
    2c00:	df000304 	addi	fp,sp,12
    INT8U    i;
    OS_TCB  *ptcb1;
    OS_TCB  *ptcb2;


    OS_MemClr((INT8U *)&OSTCBTbl[0],     sizeof(OSTCBTbl));      /* Clear all the TCBs                 */
    2c04:	01000074 	movhi	r4,1
    2c08:	211e1304 	addi	r4,r4,30796
    2c0c:	01414404 	movi	r5,1296
    2c10:	0002cd40 	call	2cd4 <OS_MemClr>
    OS_MemClr((INT8U *)&OSTCBPrioTbl[0], sizeof(OSTCBPrioTbl));  /* Clear the priority table           */
    2c14:	01000074 	movhi	r4,1
    2c18:	211f5704 	addi	r4,r4,32092
    2c1c:	01401504 	movi	r5,84
    2c20:	0002cd40 	call	2cd4 <OS_MemClr>
    ptcb1 = &OSTCBTbl[0];
    2c24:	00800074 	movhi	r2,1
    2c28:	109e1304 	addi	r2,r2,30796
    2c2c:	e0bffe15 	stw	r2,-8(fp)
    ptcb2 = &OSTCBTbl[1];
    2c30:	00800074 	movhi	r2,1
    2c34:	109e2e04 	addi	r2,r2,30904
    2c38:	e0bfff15 	stw	r2,-4(fp)
    for (i = 0; i < (OS_MAX_TASKS + OS_N_SYS_TASKS - 1); i++) {  /* Init. list of free TCBs            */
    2c3c:	e03ffd05 	stb	zero,-12(fp)
    2c40:	00001106 	br	2c88 <OS_InitTCBList+0x94>
        ptcb1->OSTCBNext = ptcb2;
    2c44:	e0bffe17 	ldw	r2,-8(fp)
    2c48:	e0ffff17 	ldw	r3,-4(fp)
    2c4c:	10c00515 	stw	r3,20(r2)
#if OS_TASK_NAME_SIZE > 1
        ptcb1->OSTCBTaskName[0] = '?';                           /* Unknown name                       */
    2c50:	e0bffe17 	ldw	r2,-8(fp)
    2c54:	00c00fc4 	movi	r3,63
    2c58:	10c01305 	stb	r3,76(r2)
        ptcb1->OSTCBTaskName[1] = OS_ASCII_NUL;
    2c5c:	e0bffe17 	ldw	r2,-8(fp)
    2c60:	10001345 	stb	zero,77(r2)
#endif
        ptcb1++;
    2c64:	e0bffe17 	ldw	r2,-8(fp)
    2c68:	10801b04 	addi	r2,r2,108
    2c6c:	e0bffe15 	stw	r2,-8(fp)
        ptcb2++;
    2c70:	e0bfff17 	ldw	r2,-4(fp)
    2c74:	10801b04 	addi	r2,r2,108
    2c78:	e0bfff15 	stw	r2,-4(fp)

    OS_MemClr((INT8U *)&OSTCBTbl[0],     sizeof(OSTCBTbl));      /* Clear all the TCBs                 */
    OS_MemClr((INT8U *)&OSTCBPrioTbl[0], sizeof(OSTCBPrioTbl));  /* Clear the priority table           */
    ptcb1 = &OSTCBTbl[0];
    ptcb2 = &OSTCBTbl[1];
    for (i = 0; i < (OS_MAX_TASKS + OS_N_SYS_TASKS - 1); i++) {  /* Init. list of free TCBs            */
    2c7c:	e0bffd03 	ldbu	r2,-12(fp)
    2c80:	10800044 	addi	r2,r2,1
    2c84:	e0bffd05 	stb	r2,-12(fp)
    2c88:	e0bffd03 	ldbu	r2,-12(fp)
    2c8c:	108002f0 	cmpltui	r2,r2,11
    2c90:	103fec1e 	bne	r2,zero,2c44 <OS_InitTCBList+0x50>
        ptcb1->OSTCBTaskName[1] = OS_ASCII_NUL;
#endif
        ptcb1++;
        ptcb2++;
    }
    ptcb1->OSTCBNext = (OS_TCB *)0;                              /* Last OS_TCB                        */
    2c94:	e0bffe17 	ldw	r2,-8(fp)
    2c98:	10000515 	stw	zero,20(r2)
#if OS_TASK_NAME_SIZE > 1
    ptcb1->OSTCBTaskName[0] = '?';                               /* Unknown name                       */
    2c9c:	e0bffe17 	ldw	r2,-8(fp)
    2ca0:	00c00fc4 	movi	r3,63
    2ca4:	10c01305 	stb	r3,76(r2)
    ptcb1->OSTCBTaskName[1] = OS_ASCII_NUL;
    2ca8:	e0bffe17 	ldw	r2,-8(fp)
    2cac:	10001345 	stb	zero,77(r2)
#endif
    OSTCBList               = (OS_TCB *)0;                       /* TCB lists initializations          */
    2cb0:	d026d515 	stw	zero,-25772(gp)
    OSTCBFreeList           = &OSTCBTbl[0];
    2cb4:	00800074 	movhi	r2,1
    2cb8:	109e1304 	addi	r2,r2,30796
    2cbc:	d0a6d915 	stw	r2,-25756(gp)
}
    2cc0:	e037883a 	mov	sp,fp
    2cc4:	dfc00117 	ldw	ra,4(sp)
    2cc8:	df000017 	ldw	fp,0(sp)
    2ccc:	dec00204 	addi	sp,sp,8
    2cd0:	f800283a 	ret

00002cd4 <OS_MemClr>:
*                 of the alignment of the destination.
*********************************************************************************************************
*/

void  OS_MemClr (INT8U *pdest, INT16U size)
{
    2cd4:	defffd04 	addi	sp,sp,-12
    2cd8:	df000215 	stw	fp,8(sp)
    2cdc:	df000204 	addi	fp,sp,8
    2ce0:	e13ffe15 	stw	r4,-8(fp)
    2ce4:	2805883a 	mov	r2,r5
    2ce8:	e0bfff0d 	sth	r2,-4(fp)
    while (size > 0) {
    2cec:	00000706 	br	2d0c <OS_MemClr+0x38>
        *pdest++ = (INT8U)0;
    2cf0:	e0bffe17 	ldw	r2,-8(fp)
    2cf4:	10c00044 	addi	r3,r2,1
    2cf8:	e0fffe15 	stw	r3,-8(fp)
    2cfc:	10000005 	stb	zero,0(r2)
        size--;
    2d00:	e0bfff0b 	ldhu	r2,-4(fp)
    2d04:	10bfffc4 	addi	r2,r2,-1
    2d08:	e0bfff0d 	sth	r2,-4(fp)
*********************************************************************************************************
*/

void  OS_MemClr (INT8U *pdest, INT16U size)
{
    while (size > 0) {
    2d0c:	e0bfff0b 	ldhu	r2,-4(fp)
    2d10:	103ff71e 	bne	r2,zero,2cf0 <OS_MemClr+0x1c>
        *pdest++ = (INT8U)0;
        size--;
    }
}
    2d14:	e037883a 	mov	sp,fp
    2d18:	df000017 	ldw	fp,0(sp)
    2d1c:	dec00104 	addi	sp,sp,4
    2d20:	f800283a 	ret

00002d24 <OS_MemCopy>:
*                 of the alignment of the source and destination.
*********************************************************************************************************
*/

void  OS_MemCopy (INT8U *pdest, INT8U *psrc, INT16U size)
{
    2d24:	defffc04 	addi	sp,sp,-16
    2d28:	df000315 	stw	fp,12(sp)
    2d2c:	df000304 	addi	fp,sp,12
    2d30:	e13ffd15 	stw	r4,-12(fp)
    2d34:	e17ffe15 	stw	r5,-8(fp)
    2d38:	3005883a 	mov	r2,r6
    2d3c:	e0bfff0d 	sth	r2,-4(fp)
    while (size > 0) {
    2d40:	00000b06 	br	2d70 <OS_MemCopy+0x4c>
        *pdest++ = *psrc++;
    2d44:	e0bffd17 	ldw	r2,-12(fp)
    2d48:	10c00044 	addi	r3,r2,1
    2d4c:	e0fffd15 	stw	r3,-12(fp)
    2d50:	e0fffe17 	ldw	r3,-8(fp)
    2d54:	19000044 	addi	r4,r3,1
    2d58:	e13ffe15 	stw	r4,-8(fp)
    2d5c:	18c00003 	ldbu	r3,0(r3)
    2d60:	10c00005 	stb	r3,0(r2)
        size--;
    2d64:	e0bfff0b 	ldhu	r2,-4(fp)
    2d68:	10bfffc4 	addi	r2,r2,-1
    2d6c:	e0bfff0d 	sth	r2,-4(fp)
*********************************************************************************************************
*/

void  OS_MemCopy (INT8U *pdest, INT8U *psrc, INT16U size)
{
    while (size > 0) {
    2d70:	e0bfff0b 	ldhu	r2,-4(fp)
    2d74:	103ff31e 	bne	r2,zero,2d44 <OS_MemCopy+0x20>
        *pdest++ = *psrc++;
        size--;
    }
}
    2d78:	e037883a 	mov	sp,fp
    2d7c:	df000017 	ldw	fp,0(sp)
    2d80:	dec00104 	addi	sp,sp,4
    2d84:	f800283a 	ret

00002d88 <OS_Sched>:
*              2) Rescheduling is prevented when the scheduler is locked (see OS_SchedLock())
*********************************************************************************************************
*/

void  OS_Sched (void)
{
    2d88:	defffb04 	addi	sp,sp,-20
    2d8c:	dfc00415 	stw	ra,16(sp)
    2d90:	df000315 	stw	fp,12(sp)
    2d94:	df000304 	addi	fp,sp,12
#if OS_CRITICAL_METHOD == 3                            /* Allocate storage for CPU status register     */
    OS_CPU_SR  cpu_sr = 0;
    2d98:	e03ffd15 	stw	zero,-12(fp)
static ALT_INLINE alt_irq_context ALT_ALWAYS_INLINE 
       alt_irq_disable_all (void)
{
  alt_irq_context context;

  NIOS2_READ_STATUS (context);
    2d9c:	0005303a 	rdctl	r2,status
    2da0:	e0bffe15 	stw	r2,-8(fp)

  NIOS2_WRITE_STATUS (context & ~NIOS2_STATUS_PIE_MSK);
    2da4:	e0fffe17 	ldw	r3,-8(fp)
    2da8:	00bfff84 	movi	r2,-2
    2dac:	1884703a 	and	r2,r3,r2
    2db0:	1001703a 	wrctl	status,r2
  
  return context;
    2db4:	e0bffe17 	ldw	r2,-8(fp)
#endif



    OS_ENTER_CRITICAL();
    2db8:	e0bffd15 	stw	r2,-12(fp)
    if (OSIntNesting == 0) {                           /* Schedule only if all ISRs done and ...       */
    2dbc:	d0a6e003 	ldbu	r2,-25728(gp)
    2dc0:	10803fcc 	andi	r2,r2,255
    2dc4:	10001a1e 	bne	r2,zero,2e30 <OS_Sched+0xa8>
        if (OSLockNesting == 0) {                      /* ... scheduler is not locked                  */
    2dc8:	d0a6d203 	ldbu	r2,-25784(gp)
    2dcc:	10803fcc 	andi	r2,r2,255
    2dd0:	1000171e 	bne	r2,zero,2e30 <OS_Sched+0xa8>
            OS_SchedNew();
    2dd4:	0002e540 	call	2e54 <OS_SchedNew>
            if (OSPrioHighRdy != OSPrioCur) {          /* No Ctx Sw if current task is highest rdy     */
    2dd8:	d0e6d403 	ldbu	r3,-25776(gp)
    2ddc:	d0a6d443 	ldbu	r2,-25775(gp)
    2de0:	18c03fcc 	andi	r3,r3,255
    2de4:	10803fcc 	andi	r2,r2,255
    2de8:	18801126 	beq	r3,r2,2e30 <OS_Sched+0xa8>
                OSTCBHighRdy = OSTCBPrioTbl[OSPrioHighRdy];
    2dec:	d0a6d403 	ldbu	r2,-25776(gp)
    2df0:	10c03fcc 	andi	r3,r2,255
    2df4:	00800074 	movhi	r2,1
    2df8:	109f5704 	addi	r2,r2,32092
    2dfc:	18c7883a 	add	r3,r3,r3
    2e00:	18c7883a 	add	r3,r3,r3
    2e04:	10c5883a 	add	r2,r2,r3
    2e08:	10800017 	ldw	r2,0(r2)
    2e0c:	d0a6dc15 	stw	r2,-25744(gp)
#if OS_TASK_PROFILE_EN > 0
                OSTCBHighRdy->OSTCBCtxSwCtr++;         /* Inc. # of context switches to this task      */
    2e10:	d0a6dc17 	ldw	r2,-25744(gp)
    2e14:	10c00e17 	ldw	r3,56(r2)
    2e18:	18c00044 	addi	r3,r3,1
    2e1c:	10c00e15 	stw	r3,56(r2)
#endif
                OSCtxSwCtr++;                          /* Increment context switch counter             */
    2e20:	d0a6d717 	ldw	r2,-25764(gp)
    2e24:	10800044 	addi	r2,r2,1
    2e28:	d0a6d715 	stw	r2,-25764(gp)
                OS_TASK_SW();                          /* Perform a context switch                     */
    2e2c:	000c5740 	call	c574 <OSCtxSw>
    2e30:	e0bffd17 	ldw	r2,-12(fp)
    2e34:	e0bfff15 	stw	r2,-4(fp)
  status &= ~NIOS2_STATUS_PIE_MSK;
  status |= (context & NIOS2_STATUS_PIE_MSK);
  
  NIOS2_WRITE_STATUS (status);
#else
  NIOS2_WRITE_STATUS (context);
    2e38:	e0bfff17 	ldw	r2,-4(fp)
    2e3c:	1001703a 	wrctl	status,r2
            }
        }
    }
    OS_EXIT_CRITICAL();
}
    2e40:	e037883a 	mov	sp,fp
    2e44:	dfc00117 	ldw	ra,4(sp)
    2e48:	df000017 	ldw	fp,0(sp)
    2e4c:	dec00204 	addi	sp,sp,8
    2e50:	f800283a 	ret

00002e54 <OS_SchedNew>:
*              2) Interrupts are assumed to be disabled when this function is called.
*********************************************************************************************************
*/

static  void  OS_SchedNew (void)
{
    2e54:	defffe04 	addi	sp,sp,-8
    2e58:	df000115 	stw	fp,4(sp)
    2e5c:	df000104 	addi	fp,sp,4
#if OS_LOWEST_PRIO <= 63                         /* See if we support up to 64 tasks                   */
    INT8U   y;


    y             = OSUnMapTbl[OSRdyGrp];
    2e60:	d0a6de03 	ldbu	r2,-25736(gp)
    2e64:	10c03fcc 	andi	r3,r2,255
    2e68:	00800074 	movhi	r2,1
    2e6c:	10b4d004 	addi	r2,r2,-11456
    2e70:	10c5883a 	add	r2,r2,r3
    2e74:	10800003 	ldbu	r2,0(r2)
    2e78:	e0bfff05 	stb	r2,-4(fp)
    OSPrioHighRdy = (INT8U)((y << 3) + OSUnMapTbl[OSRdyTbl[y]]);
    2e7c:	e0bfff03 	ldbu	r2,-4(fp)
    2e80:	100490fa 	slli	r2,r2,3
    2e84:	1009883a 	mov	r4,r2
    2e88:	e0ffff03 	ldbu	r3,-4(fp)
    2e8c:	d0a6de44 	addi	r2,gp,-25735
    2e90:	1885883a 	add	r2,r3,r2
    2e94:	10800003 	ldbu	r2,0(r2)
    2e98:	10c03fcc 	andi	r3,r2,255
    2e9c:	00800074 	movhi	r2,1
    2ea0:	10b4d004 	addi	r2,r2,-11456
    2ea4:	10c5883a 	add	r2,r2,r3
    2ea8:	10800003 	ldbu	r2,0(r2)
    2eac:	2085883a 	add	r2,r4,r2
    2eb0:	d0a6d405 	stb	r2,-25776(gp)
        OSPrioHighRdy = (INT8U)((y << 4) + OSUnMapTbl[(*ptbl & 0xFF)]);
    } else {
        OSPrioHighRdy = (INT8U)((y << 4) + OSUnMapTbl[(*ptbl >> 8) & 0xFF] + 8);
    }
#endif
}
    2eb4:	e037883a 	mov	sp,fp
    2eb8:	df000017 	ldw	fp,0(sp)
    2ebc:	dec00104 	addi	sp,sp,4
    2ec0:	f800283a 	ret

00002ec4 <OS_StrCopy>:
*********************************************************************************************************
*/

#if (OS_EVENT_NAME_SIZE > 1) || (OS_FLAG_NAME_SIZE > 1) || (OS_MEM_NAME_SIZE > 1) || (OS_TASK_NAME_SIZE > 1) || (OS_TMR_CFG_NAME_SIZE > 1)
INT8U  OS_StrCopy (INT8U *pdest, INT8U *psrc)
{
    2ec4:	defffc04 	addi	sp,sp,-16
    2ec8:	df000315 	stw	fp,12(sp)
    2ecc:	df000304 	addi	fp,sp,12
    2ed0:	e13ffe15 	stw	r4,-8(fp)
    2ed4:	e17fff15 	stw	r5,-4(fp)
    INT8U  len;


    len = 0;
    2ed8:	e03ffd05 	stb	zero,-12(fp)
    while (*psrc != OS_ASCII_NUL) {
    2edc:	00000b06 	br	2f0c <OS_StrCopy+0x48>
        *pdest++ = *psrc++;
    2ee0:	e0bffe17 	ldw	r2,-8(fp)
    2ee4:	10c00044 	addi	r3,r2,1
    2ee8:	e0fffe15 	stw	r3,-8(fp)
    2eec:	e0ffff17 	ldw	r3,-4(fp)
    2ef0:	19000044 	addi	r4,r3,1
    2ef4:	e13fff15 	stw	r4,-4(fp)
    2ef8:	18c00003 	ldbu	r3,0(r3)
    2efc:	10c00005 	stb	r3,0(r2)
        len++;
    2f00:	e0bffd03 	ldbu	r2,-12(fp)
    2f04:	10800044 	addi	r2,r2,1
    2f08:	e0bffd05 	stb	r2,-12(fp)
{
    INT8U  len;


    len = 0;
    while (*psrc != OS_ASCII_NUL) {
    2f0c:	e0bfff17 	ldw	r2,-4(fp)
    2f10:	10800003 	ldbu	r2,0(r2)
    2f14:	10803fcc 	andi	r2,r2,255
    2f18:	103ff11e 	bne	r2,zero,2ee0 <OS_StrCopy+0x1c>
        *pdest++ = *psrc++;
        len++;
    }
    *pdest = OS_ASCII_NUL;
    2f1c:	e0bffe17 	ldw	r2,-8(fp)
    2f20:	10000005 	stb	zero,0(r2)
    return (len);
    2f24:	e0bffd03 	ldbu	r2,-12(fp)
}
    2f28:	e037883a 	mov	sp,fp
    2f2c:	df000017 	ldw	fp,0(sp)
    2f30:	dec00104 	addi	sp,sp,4
    2f34:	f800283a 	ret

00002f38 <OS_StrLen>:
*********************************************************************************************************
*/

#if (OS_EVENT_NAME_SIZE > 1) || (OS_FLAG_NAME_SIZE > 1) || (OS_MEM_NAME_SIZE > 1) || (OS_TASK_NAME_SIZE > 1) || (OS_TMR_CFG_NAME_SIZE > 1)
INT8U  OS_StrLen (INT8U *psrc)
{
    2f38:	defffd04 	addi	sp,sp,-12
    2f3c:	df000215 	stw	fp,8(sp)
    2f40:	df000204 	addi	fp,sp,8
    2f44:	e13fff15 	stw	r4,-4(fp)
    INT8U  len;


    len = 0;
    2f48:	e03ffe05 	stb	zero,-8(fp)
    while (*psrc != OS_ASCII_NUL) {
    2f4c:	00000606 	br	2f68 <OS_StrLen+0x30>
        psrc++;
    2f50:	e0bfff17 	ldw	r2,-4(fp)
    2f54:	10800044 	addi	r2,r2,1
    2f58:	e0bfff15 	stw	r2,-4(fp)
        len++;
    2f5c:	e0bffe03 	ldbu	r2,-8(fp)
    2f60:	10800044 	addi	r2,r2,1
    2f64:	e0bffe05 	stb	r2,-8(fp)
{
    INT8U  len;


    len = 0;
    while (*psrc != OS_ASCII_NUL) {
    2f68:	e0bfff17 	ldw	r2,-4(fp)
    2f6c:	10800003 	ldbu	r2,0(r2)
    2f70:	10803fcc 	andi	r2,r2,255
    2f74:	103ff61e 	bne	r2,zero,2f50 <OS_StrLen+0x18>
        psrc++;
        len++;
    }
    return (len);
    2f78:	e0bffe03 	ldbu	r2,-8(fp)
}
    2f7c:	e037883a 	mov	sp,fp
    2f80:	df000017 	ldw	fp,0(sp)
    2f84:	dec00104 	addi	sp,sp,4
    2f88:	f800283a 	ret

00002f8c <OS_TaskIdle>:
*                 power.
*********************************************************************************************************
*/

void  OS_TaskIdle (void *p_arg)
{
    2f8c:	defffa04 	addi	sp,sp,-24
    2f90:	dfc00515 	stw	ra,20(sp)
    2f94:	df000415 	stw	fp,16(sp)
    2f98:	df000404 	addi	fp,sp,16
    2f9c:	e13fff15 	stw	r4,-4(fp)
#if OS_CRITICAL_METHOD == 3                      /* Allocate storage for CPU status register           */
    OS_CPU_SR  cpu_sr = 0;
    2fa0:	e03ffc15 	stw	zero,-16(fp)
static ALT_INLINE alt_irq_context ALT_ALWAYS_INLINE 
       alt_irq_disable_all (void)
{
  alt_irq_context context;

  NIOS2_READ_STATUS (context);
    2fa4:	0005303a 	rdctl	r2,status
    2fa8:	e0bffd15 	stw	r2,-12(fp)

  NIOS2_WRITE_STATUS (context & ~NIOS2_STATUS_PIE_MSK);
    2fac:	e0fffd17 	ldw	r3,-12(fp)
    2fb0:	00bfff84 	movi	r2,-2
    2fb4:	1884703a 	and	r2,r3,r2
    2fb8:	1001703a 	wrctl	status,r2
  
  return context;
    2fbc:	e0bffd17 	ldw	r2,-12(fp)



    (void)p_arg;                                 /* Prevent compiler warning for not using 'p_arg'     */
    for (;;) {
        OS_ENTER_CRITICAL();
    2fc0:	e0bffc15 	stw	r2,-16(fp)
        OSIdleCtr++;
    2fc4:	d0a6d317 	ldw	r2,-25780(gp)
    2fc8:	10800044 	addi	r2,r2,1
    2fcc:	d0a6d315 	stw	r2,-25780(gp)
    2fd0:	e0bffc17 	ldw	r2,-16(fp)
    2fd4:	e0bffe15 	stw	r2,-8(fp)
  status &= ~NIOS2_STATUS_PIE_MSK;
  status |= (context & NIOS2_STATUS_PIE_MSK);
  
  NIOS2_WRITE_STATUS (status);
#else
  NIOS2_WRITE_STATUS (context);
    2fd8:	e0bffe17 	ldw	r2,-8(fp)
    2fdc:	1001703a 	wrctl	status,r2
        OS_EXIT_CRITICAL();
        OSTaskIdleHook();                        /* Call user definable HOOK                           */
    2fe0:	000c86c0 	call	c86c <OSTaskIdleHook>
    }
    2fe4:	003fef06 	br	2fa4 <OS_TaskIdle+0x18>

00002fe8 <OS_TaskStat>:
*********************************************************************************************************
*/

#if OS_TASK_STAT_EN > 0
void  OS_TaskStat (void *p_arg)
{
    2fe8:	defff804 	addi	sp,sp,-32
    2fec:	dfc00715 	stw	ra,28(sp)
    2ff0:	df000615 	stw	fp,24(sp)
    2ff4:	dc400515 	stw	r17,20(sp)
    2ff8:	dc000415 	stw	r16,16(sp)
    2ffc:	df000604 	addi	fp,sp,24
    3000:	e13ffd15 	stw	r4,-12(fp)
#if OS_CRITICAL_METHOD == 3                      /* Allocate storage for CPU status register           */
    OS_CPU_SR  cpu_sr = 0;
    3004:	e03ffa15 	stw	zero,-24(fp)
#endif



    (void)p_arg;                                 /* Prevent compiler warning for not using 'p_arg'     */
    while (OSStatRdy == OS_FALSE) {
    3008:	00000206 	br	3014 <OS_TaskStat+0x2c>
        OSTimeDly(2 * OS_TICKS_PER_SEC / 10);    /* Wait until statistic task is ready                 */
    300c:	01000044 	movi	r4,1
    3010:	0008b980 	call	8b98 <OSTimeDly>
#endif



    (void)p_arg;                                 /* Prevent compiler warning for not using 'p_arg'     */
    while (OSStatRdy == OS_FALSE) {
    3014:	d0a6e403 	ldbu	r2,-25712(gp)
    3018:	10803fcc 	andi	r2,r2,255
    301c:	103ffb26 	beq	r2,zero,300c <OS_TaskStat+0x24>
        OSTimeDly(2 * OS_TICKS_PER_SEC / 10);    /* Wait until statistic task is ready                 */
    }
    OSIdleCtrMax /= 100L;
    3020:	d0e6d817 	ldw	r3,-25760(gp)
    3024:	00947b34 	movhi	r2,20972
    3028:	10a147c4 	addi	r2,r2,-31457
    302c:	1888383a 	mulxuu	r4,r3,r2
    3030:	1885383a 	mul	r2,r3,r2
    3034:	1021883a 	mov	r16,r2
    3038:	2023883a 	mov	r17,r4
    303c:	8804d17a 	srli	r2,r17,5
    3040:	d0a6d815 	stw	r2,-25760(gp)
    if (OSIdleCtrMax == 0L) {
    3044:	d0a6d817 	ldw	r2,-25760(gp)
    3048:	1000031e 	bne	r2,zero,3058 <OS_TaskStat+0x70>
        OSCPUUsage = 0;
    304c:	d026da05 	stb	zero,-25752(gp)
        (void)OSTaskSuspend(OS_PRIO_SELF);
    3050:	01003fc4 	movi	r4,255
    3054:	00087ec0 	call	87ec <OSTaskSuspend>
static ALT_INLINE alt_irq_context ALT_ALWAYS_INLINE 
       alt_irq_disable_all (void)
{
  alt_irq_context context;

  NIOS2_READ_STATUS (context);
    3058:	0005303a 	rdctl	r2,status
    305c:	e0bffb15 	stw	r2,-20(fp)

  NIOS2_WRITE_STATUS (context & ~NIOS2_STATUS_PIE_MSK);
    3060:	e0fffb17 	ldw	r3,-20(fp)
    3064:	00bfff84 	movi	r2,-2
    3068:	1884703a 	and	r2,r3,r2
    306c:	1001703a 	wrctl	status,r2
  
  return context;
    3070:	e0bffb17 	ldw	r2,-20(fp)
    }
    for (;;) {
        OS_ENTER_CRITICAL();
    3074:	e0bffa15 	stw	r2,-24(fp)
        OSIdleCtrRun = OSIdleCtr;                /* Obtain the of the idle counter for the past second */
    3078:	d0a6d317 	ldw	r2,-25780(gp)
    307c:	d0a6e515 	stw	r2,-25708(gp)
        OSIdleCtr    = 0L;                       /* Reset the idle counter for the next second         */
    3080:	d026d315 	stw	zero,-25780(gp)
    3084:	e0bffa17 	ldw	r2,-24(fp)
    3088:	e0bffc15 	stw	r2,-16(fp)
  status &= ~NIOS2_STATUS_PIE_MSK;
  status |= (context & NIOS2_STATUS_PIE_MSK);
  
  NIOS2_WRITE_STATUS (status);
#else
  NIOS2_WRITE_STATUS (context);
    308c:	e0bffc17 	ldw	r2,-16(fp)
    3090:	1001703a 	wrctl	status,r2
        OS_EXIT_CRITICAL();
        OSCPUUsage   = (INT8U)(100L - OSIdleCtrRun / OSIdleCtrMax);
    3094:	d0e6e517 	ldw	r3,-25708(gp)
    3098:	d0a6d817 	ldw	r2,-25760(gp)
    309c:	1885203a 	divu	r2,r3,r2
    30a0:	1007883a 	mov	r3,r2
    30a4:	00801904 	movi	r2,100
    30a8:	10c5c83a 	sub	r2,r2,r3
    30ac:	d0a6da05 	stb	r2,-25752(gp)
        OSTaskStatHook();                        /* Invoke user definable hook                         */
    30b0:	000c7fc0 	call	c7fc <OSTaskStatHook>
#if (OS_TASK_STAT_STK_CHK_EN > 0) && (OS_TASK_CREATE_EXT_EN > 0)
        OS_TaskStatStkChk();                     /* Check the stacks for each task                     */
    30b4:	00030c40 	call	30c4 <OS_TaskStatStkChk>
#endif
        OSTimeDly(OS_TICKS_PER_SEC / 10);        /* Accumulate OSIdleCtr for the next 1/10 second      */
    30b8:	0009883a 	mov	r4,zero
    30bc:	0008b980 	call	8b98 <OSTimeDly>
    }
    30c0:	003fe506 	br	3058 <OS_TaskStat+0x70>

000030c4 <OS_TaskStatStkChk>:
*********************************************************************************************************
*/

#if (OS_TASK_STAT_STK_CHK_EN > 0) && (OS_TASK_CREATE_EXT_EN > 0)
void  OS_TaskStatStkChk (void)
{
    30c4:	defffa04 	addi	sp,sp,-24
    30c8:	dfc00515 	stw	ra,20(sp)
    30cc:	df000415 	stw	fp,16(sp)
    30d0:	df000404 	addi	fp,sp,16
    OS_STK_DATA  stk_data;
    INT8U        err;
    INT8U        prio;


    for (prio = 0; prio <= OS_TASK_IDLE_PRIO; prio++) {
    30d4:	e03ffc05 	stb	zero,-16(fp)
    30d8:	00002406 	br	316c <OS_TaskStatStkChk+0xa8>
        err = OSTaskStkChk(prio, &stk_data);
    30dc:	e0fffc03 	ldbu	r3,-16(fp)
    30e0:	e0bffe04 	addi	r2,fp,-8
    30e4:	1809883a 	mov	r4,r3
    30e8:	100b883a 	mov	r5,r2
    30ec:	00086240 	call	8624 <OSTaskStkChk>
    30f0:	e0bffc45 	stb	r2,-15(fp)
        if (err == OS_ERR_NONE) {
    30f4:	e0bffc43 	ldbu	r2,-15(fp)
    30f8:	1000191e 	bne	r2,zero,3160 <OS_TaskStatStkChk+0x9c>
            ptcb = OSTCBPrioTbl[prio];
    30fc:	e0fffc03 	ldbu	r3,-16(fp)
    3100:	00800074 	movhi	r2,1
    3104:	109f5704 	addi	r2,r2,32092
    3108:	18c7883a 	add	r3,r3,r3
    310c:	18c7883a 	add	r3,r3,r3
    3110:	10c5883a 	add	r2,r2,r3
    3114:	10800017 	ldw	r2,0(r2)
    3118:	e0bffd15 	stw	r2,-12(fp)
            if (ptcb != (OS_TCB *)0) {                               /* Make sure task 'ptcb' is ...   */
    311c:	e0bffd17 	ldw	r2,-12(fp)
    3120:	10000f26 	beq	r2,zero,3160 <OS_TaskStatStkChk+0x9c>
                if (ptcb != OS_TCB_RESERVED) {                       /* ... still valid.               */
    3124:	e0bffd17 	ldw	r2,-12(fp)
    3128:	10800060 	cmpeqi	r2,r2,1
    312c:	10000c1e 	bne	r2,zero,3160 <OS_TaskStatStkChk+0x9c>
#if OS_TASK_PROFILE_EN > 0
                    #if OS_STK_GROWTH == 1
                    ptcb->OSTCBStkBase = ptcb->OSTCBStkBottom + ptcb->OSTCBStkSize;
    3130:	e0bffd17 	ldw	r2,-12(fp)
    3134:	10c00217 	ldw	r3,8(r2)
    3138:	e0bffd17 	ldw	r2,-12(fp)
    313c:	10800317 	ldw	r2,12(r2)
    3140:	1085883a 	add	r2,r2,r2
    3144:	1085883a 	add	r2,r2,r2
    3148:	1887883a 	add	r3,r3,r2
    314c:	e0bffd17 	ldw	r2,-12(fp)
    3150:	10c01115 	stw	r3,68(r2)
                    #else
                    ptcb->OSTCBStkBase = ptcb->OSTCBStkBottom - ptcb->OSTCBStkSize;
                    #endif
                    ptcb->OSTCBStkUsed = stk_data.OSUsed;            /* Store the number of bytes used */
    3154:	e0ffff17 	ldw	r3,-4(fp)
    3158:	e0bffd17 	ldw	r2,-12(fp)
    315c:	10c01215 	stw	r3,72(r2)
    OS_STK_DATA  stk_data;
    INT8U        err;
    INT8U        prio;


    for (prio = 0; prio <= OS_TASK_IDLE_PRIO; prio++) {
    3160:	e0bffc03 	ldbu	r2,-16(fp)
    3164:	10800044 	addi	r2,r2,1
    3168:	e0bffc05 	stb	r2,-16(fp)
    316c:	e0bffc03 	ldbu	r2,-16(fp)
    3170:	10800570 	cmpltui	r2,r2,21
    3174:	103fd91e 	bne	r2,zero,30dc <OS_TaskStatStkChk+0x18>
#endif
                }
            }
        }
    }
}
    3178:	e037883a 	mov	sp,fp
    317c:	dfc00117 	ldw	ra,4(sp)
    3180:	df000017 	ldw	fp,0(sp)
    3184:	dec00204 	addi	sp,sp,8
    3188:	f800283a 	ret

0000318c <OS_TCBInit>:
* Note       : This function is INTERNAL to uC/OS-II and your application should not call it.
*********************************************************************************************************
*/

INT8U  OS_TCBInit (INT8U prio, OS_STK *ptos, OS_STK *pbos, INT16U id, INT32U stk_size, void *pext, INT16U opt)
{
    318c:	defff204 	addi	sp,sp,-56
    3190:	dfc00d15 	stw	ra,52(sp)
    3194:	df000c15 	stw	fp,48(sp)
    3198:	df000c04 	addi	fp,sp,48
    319c:	e17ffc15 	stw	r5,-16(fp)
    31a0:	e1bffd15 	stw	r6,-12(fp)
    31a4:	3807883a 	mov	r3,r7
    31a8:	e0800417 	ldw	r2,16(fp)
    31ac:	e13ffb05 	stb	r4,-20(fp)
    31b0:	e0fffe0d 	sth	r3,-8(fp)
    31b4:	e0bfff0d 	sth	r2,-4(fp)
    OS_TCB    *ptcb;
#if OS_CRITICAL_METHOD == 3                                /* Allocate storage for CPU status register */
    OS_CPU_SR  cpu_sr = 0;
    31b8:	e03ff415 	stw	zero,-48(fp)
static ALT_INLINE alt_irq_context ALT_ALWAYS_INLINE 
       alt_irq_disable_all (void)
{
  alt_irq_context context;

  NIOS2_READ_STATUS (context);
    31bc:	0005303a 	rdctl	r2,status
    31c0:	e0bff615 	stw	r2,-40(fp)

  NIOS2_WRITE_STATUS (context & ~NIOS2_STATUS_PIE_MSK);
    31c4:	e0fff617 	ldw	r3,-40(fp)
    31c8:	00bfff84 	movi	r2,-2
    31cc:	1884703a 	and	r2,r3,r2
    31d0:	1001703a 	wrctl	status,r2
  
  return context;
    31d4:	e0bff617 	ldw	r2,-40(fp)
#endif



    OS_ENTER_CRITICAL();
    31d8:	e0bff415 	stw	r2,-48(fp)
    ptcb = OSTCBFreeList;                                  /* Get a free TCB from the free TCB list    */
    31dc:	d0a6d917 	ldw	r2,-25756(gp)
    31e0:	e0bff515 	stw	r2,-44(fp)
    if (ptcb != (OS_TCB *)0) {
    31e4:	e0bff517 	ldw	r2,-44(fp)
    31e8:	10009326 	beq	r2,zero,3438 <OS_TCBInit+0x2ac>
        OSTCBFreeList            = ptcb->OSTCBNext;        /* Update pointer to free TCB list          */
    31ec:	e0bff517 	ldw	r2,-44(fp)
    31f0:	10800517 	ldw	r2,20(r2)
    31f4:	d0a6d915 	stw	r2,-25756(gp)
    31f8:	e0bff417 	ldw	r2,-48(fp)
    31fc:	e0bff715 	stw	r2,-36(fp)
  status &= ~NIOS2_STATUS_PIE_MSK;
  status |= (context & NIOS2_STATUS_PIE_MSK);
  
  NIOS2_WRITE_STATUS (status);
#else
  NIOS2_WRITE_STATUS (context);
    3200:	e0bff717 	ldw	r2,-36(fp)
    3204:	1001703a 	wrctl	status,r2
        OS_EXIT_CRITICAL();
        ptcb->OSTCBStkPtr        = ptos;                   /* Load Stack pointer in TCB                */
    3208:	e0bff517 	ldw	r2,-44(fp)
    320c:	e0fffc17 	ldw	r3,-16(fp)
    3210:	10c00015 	stw	r3,0(r2)
        ptcb->OSTCBPrio          = prio;                   /* Load task priority into TCB              */
    3214:	e0bff517 	ldw	r2,-44(fp)
    3218:	e0fffb03 	ldbu	r3,-20(fp)
    321c:	10c00c85 	stb	r3,50(r2)
        ptcb->OSTCBStat          = OS_STAT_RDY;            /* Task is ready to run                     */
    3220:	e0bff517 	ldw	r2,-44(fp)
    3224:	10000c05 	stb	zero,48(r2)
        ptcb->OSTCBStatPend      = OS_STAT_PEND_OK;        /* Clear pend status                        */
    3228:	e0bff517 	ldw	r2,-44(fp)
    322c:	10000c45 	stb	zero,49(r2)
        ptcb->OSTCBDly           = 0;                      /* Task is not delayed                      */
    3230:	e0bff517 	ldw	r2,-44(fp)
    3234:	10000b8d 	sth	zero,46(r2)

#if OS_TASK_CREATE_EXT_EN > 0
        ptcb->OSTCBExtPtr        = pext;                   /* Store pointer to TCB extension           */
    3238:	e0bff517 	ldw	r2,-44(fp)
    323c:	e0c00317 	ldw	r3,12(fp)
    3240:	10c00115 	stw	r3,4(r2)
        ptcb->OSTCBStkSize       = stk_size;               /* Store stack size                         */
    3244:	e0bff517 	ldw	r2,-44(fp)
    3248:	e0c00217 	ldw	r3,8(fp)
    324c:	10c00315 	stw	r3,12(r2)
        ptcb->OSTCBStkBottom     = pbos;                   /* Store pointer to bottom of stack         */
    3250:	e0bff517 	ldw	r2,-44(fp)
    3254:	e0fffd17 	ldw	r3,-12(fp)
    3258:	10c00215 	stw	r3,8(r2)
        ptcb->OSTCBOpt           = opt;                    /* Store task options                       */
    325c:	e0bff517 	ldw	r2,-44(fp)
    3260:	e0ffff0b 	ldhu	r3,-4(fp)
    3264:	10c0040d 	sth	r3,16(r2)
        ptcb->OSTCBId            = id;                     /* Store task ID                            */
    3268:	e0bff517 	ldw	r2,-44(fp)
    326c:	e0fffe0b 	ldhu	r3,-8(fp)
    3270:	10c0048d 	sth	r3,18(r2)
        opt                      = opt;
        id                       = id;
#endif

#if OS_TASK_DEL_EN > 0
        ptcb->OSTCBDelReq        = OS_ERR_NONE;
    3274:	e0bff517 	ldw	r2,-44(fp)
    3278:	10000dc5 	stb	zero,55(r2)
#endif

#if OS_LOWEST_PRIO <= 63
        ptcb->OSTCBY             = (INT8U)(prio >> 3);          /* Pre-compute X, Y, BitX and BitY     */
    327c:	e0bffb03 	ldbu	r2,-20(fp)
    3280:	1004d0fa 	srli	r2,r2,3
    3284:	1007883a 	mov	r3,r2
    3288:	e0bff517 	ldw	r2,-44(fp)
    328c:	10c00d05 	stb	r3,52(r2)
        ptcb->OSTCBX             = (INT8U)(prio & 0x07);
    3290:	e0bffb03 	ldbu	r2,-20(fp)
    3294:	108001cc 	andi	r2,r2,7
    3298:	1007883a 	mov	r3,r2
    329c:	e0bff517 	ldw	r2,-44(fp)
    32a0:	10c00cc5 	stb	r3,51(r2)
        ptcb->OSTCBBitY          = (INT8U)(1 << ptcb->OSTCBY);
    32a4:	e0bff517 	ldw	r2,-44(fp)
    32a8:	10800d03 	ldbu	r2,52(r2)
    32ac:	10803fcc 	andi	r2,r2,255
    32b0:	00c00044 	movi	r3,1
    32b4:	1884983a 	sll	r2,r3,r2
    32b8:	1007883a 	mov	r3,r2
    32bc:	e0bff517 	ldw	r2,-44(fp)
    32c0:	10c00d85 	stb	r3,54(r2)
        ptcb->OSTCBBitX          = (INT8U)(1 << ptcb->OSTCBX);
    32c4:	e0bff517 	ldw	r2,-44(fp)
    32c8:	10800cc3 	ldbu	r2,51(r2)
    32cc:	10803fcc 	andi	r2,r2,255
    32d0:	00c00044 	movi	r3,1
    32d4:	1884983a 	sll	r2,r3,r2
    32d8:	1007883a 	mov	r3,r2
    32dc:	e0bff517 	ldw	r2,-44(fp)
    32e0:	10c00d45 	stb	r3,53(r2)
        ptcb->OSTCBBitY          = (INT16U)(1 << ptcb->OSTCBY);
        ptcb->OSTCBBitX          = (INT16U)(1 << ptcb->OSTCBX);
#endif

#if (OS_EVENT_EN)
        ptcb->OSTCBEventPtr      = (OS_EVENT  *)0;         /* Task is not pending on an  event         */
    32e4:	e0bff517 	ldw	r2,-44(fp)
    32e8:	10000715 	stw	zero,28(r2)
#if (OS_EVENT_MULTI_EN > 0)
        ptcb->OSTCBEventMultiPtr = (OS_EVENT **)0;         /* Task is not pending on any events        */
    32ec:	e0bff517 	ldw	r2,-44(fp)
    32f0:	10000815 	stw	zero,32(r2)
#endif
#endif

#if (OS_FLAG_EN > 0) && (OS_MAX_FLAGS > 0) && (OS_TASK_DEL_EN > 0)
        ptcb->OSTCBFlagNode  = (OS_FLAG_NODE *)0;          /* Task is not pending on an event flag     */
    32f4:	e0bff517 	ldw	r2,-44(fp)
    32f8:	10000a15 	stw	zero,40(r2)
#endif

#if (OS_MBOX_EN > 0) || ((OS_Q_EN > 0) && (OS_MAX_QS > 0))
        ptcb->OSTCBMsg       = (void *)0;                  /* No message received                      */
    32fc:	e0bff517 	ldw	r2,-44(fp)
    3300:	10000915 	stw	zero,36(r2)
#endif

#if OS_TASK_PROFILE_EN > 0
        ptcb->OSTCBCtxSwCtr    = 0L;                       /* Initialize profiling variables           */
    3304:	e0bff517 	ldw	r2,-44(fp)
    3308:	10000e15 	stw	zero,56(r2)
        ptcb->OSTCBCyclesStart = 0L;
    330c:	e0bff517 	ldw	r2,-44(fp)
    3310:	10001015 	stw	zero,64(r2)
        ptcb->OSTCBCyclesTot   = 0L;
    3314:	e0bff517 	ldw	r2,-44(fp)
    3318:	10000f15 	stw	zero,60(r2)
        ptcb->OSTCBStkBase     = (OS_STK *)0;
    331c:	e0bff517 	ldw	r2,-44(fp)
    3320:	10001115 	stw	zero,68(r2)
        ptcb->OSTCBStkUsed     = 0L;
    3324:	e0bff517 	ldw	r2,-44(fp)
    3328:	10001215 	stw	zero,72(r2)
#endif

#if OS_TASK_NAME_SIZE > 1
        ptcb->OSTCBTaskName[0] = '?';                      /* Unknown name at task creation            */
    332c:	e0bff517 	ldw	r2,-44(fp)
    3330:	00c00fc4 	movi	r3,63
    3334:	10c01305 	stb	r3,76(r2)
        ptcb->OSTCBTaskName[1] = OS_ASCII_NUL;
    3338:	e0bff517 	ldw	r2,-44(fp)
    333c:	10001345 	stb	zero,77(r2)
#endif

        OSTCBInitHook(ptcb);
    3340:	e13ff517 	ldw	r4,-44(fp)
    3344:	000c8880 	call	c888 <OSTCBInitHook>

        OSTaskCreateHook(ptcb);                            /* Call user defined hook                   */
    3348:	e13ff517 	ldw	r4,-44(fp)
    334c:	000c7a00 	call	c7a0 <OSTaskCreateHook>
static ALT_INLINE alt_irq_context ALT_ALWAYS_INLINE 
       alt_irq_disable_all (void)
{
  alt_irq_context context;

  NIOS2_READ_STATUS (context);
    3350:	0005303a 	rdctl	r2,status
    3354:	e0bff815 	stw	r2,-32(fp)

  NIOS2_WRITE_STATUS (context & ~NIOS2_STATUS_PIE_MSK);
    3358:	e0fff817 	ldw	r3,-32(fp)
    335c:	00bfff84 	movi	r2,-2
    3360:	1884703a 	and	r2,r3,r2
    3364:	1001703a 	wrctl	status,r2
  
  return context;
    3368:	e0bff817 	ldw	r2,-32(fp)

        OS_ENTER_CRITICAL();
    336c:	e0bff415 	stw	r2,-48(fp)
        OSTCBPrioTbl[prio] = ptcb;
    3370:	e0fffb03 	ldbu	r3,-20(fp)
    3374:	00800074 	movhi	r2,1
    3378:	109f5704 	addi	r2,r2,32092
    337c:	18c7883a 	add	r3,r3,r3
    3380:	18c7883a 	add	r3,r3,r3
    3384:	10c5883a 	add	r2,r2,r3
    3388:	e0fff517 	ldw	r3,-44(fp)
    338c:	10c00015 	stw	r3,0(r2)
        ptcb->OSTCBNext    = OSTCBList;                    /* Link into TCB chain                      */
    3390:	d0e6d517 	ldw	r3,-25772(gp)
    3394:	e0bff517 	ldw	r2,-44(fp)
    3398:	10c00515 	stw	r3,20(r2)
        ptcb->OSTCBPrev    = (OS_TCB *)0;
    339c:	e0bff517 	ldw	r2,-44(fp)
    33a0:	10000615 	stw	zero,24(r2)
        if (OSTCBList != (OS_TCB *)0) {
    33a4:	d0a6d517 	ldw	r2,-25772(gp)
    33a8:	10000326 	beq	r2,zero,33b8 <OS_TCBInit+0x22c>
            OSTCBList->OSTCBPrev = ptcb;
    33ac:	d0a6d517 	ldw	r2,-25772(gp)
    33b0:	e0fff517 	ldw	r3,-44(fp)
    33b4:	10c00615 	stw	r3,24(r2)
        }
        OSTCBList               = ptcb;
    33b8:	e0bff517 	ldw	r2,-44(fp)
    33bc:	d0a6d515 	stw	r2,-25772(gp)
        OSRdyGrp               |= ptcb->OSTCBBitY;         /* Make task ready to run                   */
    33c0:	e0bff517 	ldw	r2,-44(fp)
    33c4:	10c00d83 	ldbu	r3,54(r2)
    33c8:	d0a6de03 	ldbu	r2,-25736(gp)
    33cc:	1884b03a 	or	r2,r3,r2
    33d0:	d0a6de05 	stb	r2,-25736(gp)
        OSRdyTbl[ptcb->OSTCBY] |= ptcb->OSTCBBitX;
    33d4:	e0bff517 	ldw	r2,-44(fp)
    33d8:	10800d03 	ldbu	r2,52(r2)
    33dc:	10c03fcc 	andi	r3,r2,255
    33e0:	e0bff517 	ldw	r2,-44(fp)
    33e4:	10800d03 	ldbu	r2,52(r2)
    33e8:	11003fcc 	andi	r4,r2,255
    33ec:	d0a6de44 	addi	r2,gp,-25735
    33f0:	2085883a 	add	r2,r4,r2
    33f4:	11000003 	ldbu	r4,0(r2)
    33f8:	e0bff517 	ldw	r2,-44(fp)
    33fc:	10800d43 	ldbu	r2,53(r2)
    3400:	2084b03a 	or	r2,r4,r2
    3404:	1009883a 	mov	r4,r2
    3408:	d0a6de44 	addi	r2,gp,-25735
    340c:	1885883a 	add	r2,r3,r2
    3410:	11000005 	stb	r4,0(r2)
        OSTaskCtr++;                                       /* Increment the #tasks counter             */
    3414:	d0a6da43 	ldbu	r2,-25751(gp)
    3418:	10800044 	addi	r2,r2,1
    341c:	d0a6da45 	stb	r2,-25751(gp)
    3420:	e0bff417 	ldw	r2,-48(fp)
    3424:	e0bff915 	stw	r2,-28(fp)
  status &= ~NIOS2_STATUS_PIE_MSK;
  status |= (context & NIOS2_STATUS_PIE_MSK);
  
  NIOS2_WRITE_STATUS (status);
#else
  NIOS2_WRITE_STATUS (context);
    3428:	e0bff917 	ldw	r2,-28(fp)
    342c:	1001703a 	wrctl	status,r2
        OS_EXIT_CRITICAL();
        return (OS_ERR_NONE);
    3430:	0005883a 	mov	r2,zero
    3434:	00000506 	br	344c <OS_TCBInit+0x2c0>
    3438:	e0bff417 	ldw	r2,-48(fp)
    343c:	e0bffa15 	stw	r2,-24(fp)
    3440:	e0bffa17 	ldw	r2,-24(fp)
    3444:	1001703a 	wrctl	status,r2
    }
    OS_EXIT_CRITICAL();
    return (OS_ERR_TASK_NO_MORE_TCB);
    3448:	00801084 	movi	r2,66
}
    344c:	e037883a 	mov	sp,fp
    3450:	dfc00117 	ldw	ra,4(sp)
    3454:	df000017 	ldw	fp,0(sp)
    3458:	dec00204 	addi	sp,sp,8
    345c:	f800283a 	ret

00003460 <OSDebugInit>:
*********************************************************************************************************
*/

#if OS_DEBUG_EN > 0
void  OSDebugInit (void)
{
    3460:	defffe04 	addi	sp,sp,-8
    3464:	df000115 	stw	fp,4(sp)
    3468:	df000104 	addi	fp,sp,4
    void  *ptemp;

    
    ptemp = (void *)&OSDebugEn;
    346c:	d0a00604 	addi	r2,gp,-32744
    3470:	e0bfff15 	stw	r2,-4(fp)

    ptemp = (void *)&OSEndiannessTest;
    3474:	d0a00704 	addi	r2,gp,-32740
    3478:	e0bfff15 	stw	r2,-4(fp)

    ptemp = (void *)&OSEventMax;
    347c:	d0a00884 	addi	r2,gp,-32734
    3480:	e0bfff15 	stw	r2,-4(fp)
    ptemp = (void *)&OSEventNameSize;
    3484:	d0a00904 	addi	r2,gp,-32732
    3488:	e0bfff15 	stw	r2,-4(fp)
    ptemp = (void *)&OSEventEn;
    348c:	d0a00804 	addi	r2,gp,-32736
    3490:	e0bfff15 	stw	r2,-4(fp)
    ptemp = (void *)&OSEventSize;
    3494:	d0a00984 	addi	r2,gp,-32730
    3498:	e0bfff15 	stw	r2,-4(fp)
    ptemp = (void *)&OSEventTblSize;
    349c:	d0a00a04 	addi	r2,gp,-32728
    34a0:	e0bfff15 	stw	r2,-4(fp)
    ptemp = (void *)&OSEventMultiEn;
    34a4:	d0a00a84 	addi	r2,gp,-32726
    34a8:	e0bfff15 	stw	r2,-4(fp)

    ptemp = (void *)&OSFlagEn;
    34ac:	d0a00b04 	addi	r2,gp,-32724
    34b0:	e0bfff15 	stw	r2,-4(fp)
    ptemp = (void *)&OSFlagGrpSize;
    34b4:	d0a00b84 	addi	r2,gp,-32722
    34b8:	e0bfff15 	stw	r2,-4(fp)
    ptemp = (void *)&OSFlagNodeSize;
    34bc:	d0a00c04 	addi	r2,gp,-32720
    34c0:	e0bfff15 	stw	r2,-4(fp)
    ptemp = (void *)&OSFlagWidth;
    34c4:	d0a00c84 	addi	r2,gp,-32718
    34c8:	e0bfff15 	stw	r2,-4(fp)
    ptemp = (void *)&OSFlagMax;
    34cc:	d0a00d04 	addi	r2,gp,-32716
    34d0:	e0bfff15 	stw	r2,-4(fp)
    ptemp = (void *)&OSFlagNameSize;
    34d4:	d0a00d84 	addi	r2,gp,-32714
    34d8:	e0bfff15 	stw	r2,-4(fp)

    ptemp = (void *)&OSLowestPrio;
    34dc:	d0a00e04 	addi	r2,gp,-32712
    34e0:	e0bfff15 	stw	r2,-4(fp)

    ptemp = (void *)&OSMboxEn;
    34e4:	d0a00e84 	addi	r2,gp,-32710
    34e8:	e0bfff15 	stw	r2,-4(fp)

    ptemp = (void *)&OSMemEn;
    34ec:	d0a00f04 	addi	r2,gp,-32708
    34f0:	e0bfff15 	stw	r2,-4(fp)
    ptemp = (void *)&OSMemMax;
    34f4:	d0a00f84 	addi	r2,gp,-32706
    34f8:	e0bfff15 	stw	r2,-4(fp)
    ptemp = (void *)&OSMemNameSize;
    34fc:	d0a01004 	addi	r2,gp,-32704
    3500:	e0bfff15 	stw	r2,-4(fp)
    ptemp = (void *)&OSMemSize;
    3504:	d0a01084 	addi	r2,gp,-32702
    3508:	e0bfff15 	stw	r2,-4(fp)
    ptemp = (void *)&OSMemTblSize;
    350c:	d0a01104 	addi	r2,gp,-32700
    3510:	e0bfff15 	stw	r2,-4(fp)

    ptemp = (void *)&OSMutexEn;
    3514:	d0a01184 	addi	r2,gp,-32698
    3518:	e0bfff15 	stw	r2,-4(fp)

    ptemp = (void *)&OSPtrSize;
    351c:	d0a01204 	addi	r2,gp,-32696
    3520:	e0bfff15 	stw	r2,-4(fp)

    ptemp = (void *)&OSQEn;
    3524:	d0a01284 	addi	r2,gp,-32694
    3528:	e0bfff15 	stw	r2,-4(fp)
    ptemp = (void *)&OSQMax;
    352c:	d0a01304 	addi	r2,gp,-32692
    3530:	e0bfff15 	stw	r2,-4(fp)
    ptemp = (void *)&OSQSize;
    3534:	d0a01384 	addi	r2,gp,-32690
    3538:	e0bfff15 	stw	r2,-4(fp)

    ptemp = (void *)&OSRdyTblSize;
    353c:	d0a01404 	addi	r2,gp,-32688
    3540:	e0bfff15 	stw	r2,-4(fp)

    ptemp = (void *)&OSSemEn;
    3544:	d0a01484 	addi	r2,gp,-32686
    3548:	e0bfff15 	stw	r2,-4(fp)

    ptemp = (void *)&OSStkWidth;
    354c:	d0a01504 	addi	r2,gp,-32684
    3550:	e0bfff15 	stw	r2,-4(fp)

    ptemp = (void *)&OSTaskCreateEn;
    3554:	d0a01584 	addi	r2,gp,-32682
    3558:	e0bfff15 	stw	r2,-4(fp)
    ptemp = (void *)&OSTaskCreateExtEn;
    355c:	d0a01604 	addi	r2,gp,-32680
    3560:	e0bfff15 	stw	r2,-4(fp)
    ptemp = (void *)&OSTaskDelEn;
    3564:	d0a01684 	addi	r2,gp,-32678
    3568:	e0bfff15 	stw	r2,-4(fp)
    ptemp = (void *)&OSTaskIdleStkSize;
    356c:	d0a01704 	addi	r2,gp,-32676
    3570:	e0bfff15 	stw	r2,-4(fp)
    ptemp = (void *)&OSTaskProfileEn;
    3574:	d0a01784 	addi	r2,gp,-32674
    3578:	e0bfff15 	stw	r2,-4(fp)
    ptemp = (void *)&OSTaskMax;
    357c:	d0a01804 	addi	r2,gp,-32672
    3580:	e0bfff15 	stw	r2,-4(fp)
    ptemp = (void *)&OSTaskNameSize;
    3584:	d0a01884 	addi	r2,gp,-32670
    3588:	e0bfff15 	stw	r2,-4(fp)
    ptemp = (void *)&OSTaskStatEn;
    358c:	d0a01904 	addi	r2,gp,-32668
    3590:	e0bfff15 	stw	r2,-4(fp)
    ptemp = (void *)&OSTaskStatStkSize;
    3594:	d0a01984 	addi	r2,gp,-32666
    3598:	e0bfff15 	stw	r2,-4(fp)
    ptemp = (void *)&OSTaskStatStkChkEn;
    359c:	d0a01a04 	addi	r2,gp,-32664
    35a0:	e0bfff15 	stw	r2,-4(fp)
    ptemp = (void *)&OSTaskSwHookEn;
    35a4:	d0a01a84 	addi	r2,gp,-32662
    35a8:	e0bfff15 	stw	r2,-4(fp)

    ptemp = (void *)&OSTCBPrioTblMax;
    35ac:	d0a01b04 	addi	r2,gp,-32660
    35b0:	e0bfff15 	stw	r2,-4(fp)
    ptemp = (void *)&OSTCBSize;
    35b4:	d0a01b84 	addi	r2,gp,-32658
    35b8:	e0bfff15 	stw	r2,-4(fp)

    ptemp = (void *)&OSTicksPerSec;
    35bc:	d0a01c04 	addi	r2,gp,-32656
    35c0:	e0bfff15 	stw	r2,-4(fp)
    ptemp = (void *)&OSTimeTickHookEn;
    35c4:	d0a01c84 	addi	r2,gp,-32654
    35c8:	e0bfff15 	stw	r2,-4(fp)

    ptemp = (void *)&OSTmrWheelSize;
    ptemp = (void *)&OSTmrWheelTblSize;
#endif

    ptemp = (void *)&OSVersionNbr;
    35cc:	d0a01d04 	addi	r2,gp,-32652
    35d0:	e0bfff15 	stw	r2,-4(fp)

    ptemp = (void *)&OSDataSize;
    35d4:	d0a02204 	addi	r2,gp,-32632
    35d8:	e0bfff15 	stw	r2,-4(fp)

    ptemp = ptemp;                             /* Prevent compiler warning for 'ptemp' not being used! */
}
    35dc:	e037883a 	mov	sp,fp
    35e0:	df000017 	ldw	fp,0(sp)
    35e4:	dec00104 	addi	sp,sp,4
    35e8:	f800283a 	ret

000035ec <OSFlagAccept>:
*********************************************************************************************************
*/

#if OS_FLAG_ACCEPT_EN > 0
OS_FLAGS  OSFlagAccept (OS_FLAG_GRP *pgrp, OS_FLAGS flags, INT8U wait_type, INT8U *perr)
{
    35ec:	defff204 	addi	sp,sp,-56
    35f0:	df000d15 	stw	fp,52(sp)
    35f4:	df000d04 	addi	fp,sp,52
    35f8:	e13ffc15 	stw	r4,-16(fp)
    35fc:	2807883a 	mov	r3,r5
    3600:	3005883a 	mov	r2,r6
    3604:	e1ffff15 	stw	r7,-4(fp)
    3608:	e0fffd0d 	sth	r3,-12(fp)
    360c:	e0bffe05 	stb	r2,-8(fp)
    OS_FLAGS      flags_rdy;
    INT8U         result;
    BOOLEAN       consume;
#if OS_CRITICAL_METHOD == 3                                /* Allocate storage for CPU status register */
    OS_CPU_SR     cpu_sr = 0;
    3610:	e03ff415 	stw	zero,-48(fp)
#endif



#if OS_ARG_CHK_EN > 0
    if (perr == (INT8U *)0) {                              /* Validate 'perr'                          */
    3614:	e0bfff17 	ldw	r2,-4(fp)
    3618:	1000021e 	bne	r2,zero,3624 <OSFlagAccept+0x38>
        return ((OS_FLAGS)0);
    361c:	0005883a 	mov	r2,zero
    3620:	0000b006 	br	38e4 <OSFlagAccept+0x2f8>
    }
    if (pgrp == (OS_FLAG_GRP *)0) {                        /* Validate 'pgrp'                          */
    3624:	e0bffc17 	ldw	r2,-16(fp)
    3628:	1000051e 	bne	r2,zero,3640 <OSFlagAccept+0x54>
        *perr = OS_ERR_FLAG_INVALID_PGRP;
    362c:	e0bfff17 	ldw	r2,-4(fp)
    3630:	00c01b84 	movi	r3,110
    3634:	10c00005 	stb	r3,0(r2)
        return ((OS_FLAGS)0);
    3638:	0005883a 	mov	r2,zero
    363c:	0000a906 	br	38e4 <OSFlagAccept+0x2f8>
    }
#endif
    if (pgrp->OSFlagType != OS_EVENT_TYPE_FLAG) {          /* Validate event block type                */
    3640:	e0bffc17 	ldw	r2,-16(fp)
    3644:	10800003 	ldbu	r2,0(r2)
    3648:	10803fcc 	andi	r2,r2,255
    364c:	10800160 	cmpeqi	r2,r2,5
    3650:	1000051e 	bne	r2,zero,3668 <OSFlagAccept+0x7c>
        *perr = OS_ERR_EVENT_TYPE;
    3654:	e0bfff17 	ldw	r2,-4(fp)
    3658:	00c00044 	movi	r3,1
    365c:	10c00005 	stb	r3,0(r2)
        return ((OS_FLAGS)0);
    3660:	0005883a 	mov	r2,zero
    3664:	00009f06 	br	38e4 <OSFlagAccept+0x2f8>
    }
    result = (INT8U)(wait_type & OS_FLAG_CONSUME);
    3668:	e0fffe03 	ldbu	r3,-8(fp)
    366c:	00bfe004 	movi	r2,-128
    3670:	1884703a 	and	r2,r3,r2
    3674:	e0bff505 	stb	r2,-44(fp)
    if (result != (INT8U)0) {                              /* See if we need to consume the flags      */
    3678:	e0bff503 	ldbu	r2,-44(fp)
    367c:	10000626 	beq	r2,zero,3698 <OSFlagAccept+0xac>
        wait_type &= ~OS_FLAG_CONSUME;
    3680:	e0bffe03 	ldbu	r2,-8(fp)
    3684:	10801fcc 	andi	r2,r2,127
    3688:	e0bffe05 	stb	r2,-8(fp)
        consume    = OS_TRUE;
    368c:	00800044 	movi	r2,1
    3690:	e0bff385 	stb	r2,-50(fp)
    3694:	00000106 	br	369c <OSFlagAccept+0xb0>
    } else {
        consume    = OS_FALSE;
    3698:	e03ff385 	stb	zero,-50(fp)
    }
/*$PAGE*/
    *perr = OS_ERR_NONE;                                   /* Assume NO error until proven otherwise.  */
    369c:	e0bfff17 	ldw	r2,-4(fp)
    36a0:	10000005 	stb	zero,0(r2)
static ALT_INLINE alt_irq_context ALT_ALWAYS_INLINE 
       alt_irq_disable_all (void)
{
  alt_irq_context context;

  NIOS2_READ_STATUS (context);
    36a4:	0005303a 	rdctl	r2,status
    36a8:	e0bff615 	stw	r2,-40(fp)

  NIOS2_WRITE_STATUS (context & ~NIOS2_STATUS_PIE_MSK);
    36ac:	e0fff617 	ldw	r3,-40(fp)
    36b0:	00bfff84 	movi	r2,-2
    36b4:	1884703a 	and	r2,r3,r2
    36b8:	1001703a 	wrctl	status,r2
  
  return context;
    36bc:	e0bff617 	ldw	r2,-40(fp)
    OS_ENTER_CRITICAL();
    36c0:	e0bff415 	stw	r2,-48(fp)
    switch (wait_type) {
    36c4:	e0bffe03 	ldbu	r2,-8(fp)
    36c8:	10c00060 	cmpeqi	r3,r2,1
    36cc:	18005f1e 	bne	r3,zero,384c <OSFlagAccept+0x260>
    36d0:	10c00088 	cmpgei	r3,r2,2
    36d4:	1800021e 	bne	r3,zero,36e0 <OSFlagAccept+0xf4>
    36d8:	10003f26 	beq	r2,zero,37d8 <OSFlagAccept+0x1ec>
    36dc:	00007706 	br	38bc <OSFlagAccept+0x2d0>
    36e0:	10c000a0 	cmpeqi	r3,r2,2
    36e4:	1800031e 	bne	r3,zero,36f4 <OSFlagAccept+0x108>
    36e8:	108000e0 	cmpeqi	r2,r2,3
    36ec:	10001e1e 	bne	r2,zero,3768 <OSFlagAccept+0x17c>
    36f0:	00007206 	br	38bc <OSFlagAccept+0x2d0>
        case OS_FLAG_WAIT_SET_ALL:                         /* See if all required flags are set        */
             flags_rdy = (OS_FLAGS)(pgrp->OSFlagFlags & flags);     /* Extract only the bits we want   */
    36f4:	e0bffc17 	ldw	r2,-16(fp)
    36f8:	10c0020b 	ldhu	r3,8(r2)
    36fc:	e0bffd0b 	ldhu	r2,-12(fp)
    3700:	1884703a 	and	r2,r3,r2
    3704:	e0bff30d 	sth	r2,-52(fp)
             if (flags_rdy == flags) {                     /* Must match ALL the bits that we want     */
    3708:	e0fff30b 	ldhu	r3,-52(fp)
    370c:	e0bffd0b 	ldhu	r2,-12(fp)
    3710:	18800d1e 	bne	r3,r2,3748 <OSFlagAccept+0x15c>
                 if (consume == OS_TRUE) {                 /* See if we need to consume the flags      */
    3714:	e0bff383 	ldbu	r2,-50(fp)
    3718:	10800058 	cmpnei	r2,r2,1
    371c:	10000d1e 	bne	r2,zero,3754 <OSFlagAccept+0x168>
                     pgrp->OSFlagFlags &= ~flags_rdy;      /* Clear ONLY the flags that we wanted      */
    3720:	e0bffc17 	ldw	r2,-16(fp)
    3724:	1080020b 	ldhu	r2,8(r2)
    3728:	1007883a 	mov	r3,r2
    372c:	e0bff30b 	ldhu	r2,-52(fp)
    3730:	0084303a 	nor	r2,zero,r2
    3734:	1884703a 	and	r2,r3,r2
    3738:	1007883a 	mov	r3,r2
    373c:	e0bffc17 	ldw	r2,-16(fp)
    3740:	10c0020d 	sth	r3,8(r2)
    3744:	00000306 	br	3754 <OSFlagAccept+0x168>
                 }
             } else {
                 *perr = OS_ERR_FLAG_NOT_RDY;
    3748:	e0bfff17 	ldw	r2,-4(fp)
    374c:	00c01c04 	movi	r3,112
    3750:	10c00005 	stb	r3,0(r2)
    3754:	e0bff417 	ldw	r2,-48(fp)
    3758:	e0bff715 	stw	r2,-36(fp)
  status &= ~NIOS2_STATUS_PIE_MSK;
  status |= (context & NIOS2_STATUS_PIE_MSK);
  
  NIOS2_WRITE_STATUS (status);
#else
  NIOS2_WRITE_STATUS (context);
    375c:	e0bff717 	ldw	r2,-36(fp)
    3760:	1001703a 	wrctl	status,r2
             }
             OS_EXIT_CRITICAL();
             break;
    3764:	00005e06 	br	38e0 <OSFlagAccept+0x2f4>

        case OS_FLAG_WAIT_SET_ANY:
             flags_rdy = (OS_FLAGS)(pgrp->OSFlagFlags & flags);     /* Extract only the bits we want   */
    3768:	e0bffc17 	ldw	r2,-16(fp)
    376c:	10c0020b 	ldhu	r3,8(r2)
    3770:	e0bffd0b 	ldhu	r2,-12(fp)
    3774:	1884703a 	and	r2,r3,r2
    3778:	e0bff30d 	sth	r2,-52(fp)
             if (flags_rdy != (OS_FLAGS)0) {               /* See if any flag set                      */
    377c:	e0bff30b 	ldhu	r2,-52(fp)
    3780:	10000d26 	beq	r2,zero,37b8 <OSFlagAccept+0x1cc>
                 if (consume == OS_TRUE) {                 /* See if we need to consume the flags      */
    3784:	e0bff383 	ldbu	r2,-50(fp)
    3788:	10800058 	cmpnei	r2,r2,1
    378c:	10000d1e 	bne	r2,zero,37c4 <OSFlagAccept+0x1d8>
                     pgrp->OSFlagFlags &= ~flags_rdy;      /* Clear ONLY the flags that we got         */
    3790:	e0bffc17 	ldw	r2,-16(fp)
    3794:	1080020b 	ldhu	r2,8(r2)
    3798:	1007883a 	mov	r3,r2
    379c:	e0bff30b 	ldhu	r2,-52(fp)
    37a0:	0084303a 	nor	r2,zero,r2
    37a4:	1884703a 	and	r2,r3,r2
    37a8:	1007883a 	mov	r3,r2
    37ac:	e0bffc17 	ldw	r2,-16(fp)
    37b0:	10c0020d 	sth	r3,8(r2)
    37b4:	00000306 	br	37c4 <OSFlagAccept+0x1d8>
                 }
             } else {
                 *perr = OS_ERR_FLAG_NOT_RDY;
    37b8:	e0bfff17 	ldw	r2,-4(fp)
    37bc:	00c01c04 	movi	r3,112
    37c0:	10c00005 	stb	r3,0(r2)
    37c4:	e0bff417 	ldw	r2,-48(fp)
    37c8:	e0bff815 	stw	r2,-32(fp)
    37cc:	e0bff817 	ldw	r2,-32(fp)
    37d0:	1001703a 	wrctl	status,r2
             }
             OS_EXIT_CRITICAL();
             break;
    37d4:	00004206 	br	38e0 <OSFlagAccept+0x2f4>

#if OS_FLAG_WAIT_CLR_EN > 0
        case OS_FLAG_WAIT_CLR_ALL:                         /* See if all required flags are cleared    */
             flags_rdy = (OS_FLAGS)(~pgrp->OSFlagFlags & flags);  /* Extract only the bits we want     */
    37d8:	e0bffc17 	ldw	r2,-16(fp)
    37dc:	1080020b 	ldhu	r2,8(r2)
    37e0:	0084303a 	nor	r2,zero,r2
    37e4:	1007883a 	mov	r3,r2
    37e8:	e0bffd0b 	ldhu	r2,-12(fp)
    37ec:	1884703a 	and	r2,r3,r2
    37f0:	e0bff30d 	sth	r2,-52(fp)
             if (flags_rdy == flags) {                     /* Must match ALL the bits that we want     */
    37f4:	e0fff30b 	ldhu	r3,-52(fp)
    37f8:	e0bffd0b 	ldhu	r2,-12(fp)
    37fc:	18800b1e 	bne	r3,r2,382c <OSFlagAccept+0x240>
                 if (consume == OS_TRUE) {                 /* See if we need to consume the flags      */
    3800:	e0bff383 	ldbu	r2,-50(fp)
    3804:	10800058 	cmpnei	r2,r2,1
    3808:	10000b1e 	bne	r2,zero,3838 <OSFlagAccept+0x24c>
                     pgrp->OSFlagFlags |= flags_rdy;       /* Set ONLY the flags that we wanted        */
    380c:	e0bffc17 	ldw	r2,-16(fp)
    3810:	10c0020b 	ldhu	r3,8(r2)
    3814:	e0bff30b 	ldhu	r2,-52(fp)
    3818:	1884b03a 	or	r2,r3,r2
    381c:	1007883a 	mov	r3,r2
    3820:	e0bffc17 	ldw	r2,-16(fp)
    3824:	10c0020d 	sth	r3,8(r2)
    3828:	00000306 	br	3838 <OSFlagAccept+0x24c>
                 }
             } else {
                 *perr = OS_ERR_FLAG_NOT_RDY;
    382c:	e0bfff17 	ldw	r2,-4(fp)
    3830:	00c01c04 	movi	r3,112
    3834:	10c00005 	stb	r3,0(r2)
    3838:	e0bff417 	ldw	r2,-48(fp)
    383c:	e0bff915 	stw	r2,-28(fp)
    3840:	e0bff917 	ldw	r2,-28(fp)
    3844:	1001703a 	wrctl	status,r2
             }
             OS_EXIT_CRITICAL();
             break;
    3848:	00002506 	br	38e0 <OSFlagAccept+0x2f4>

        case OS_FLAG_WAIT_CLR_ANY:
             flags_rdy = (OS_FLAGS)(~pgrp->OSFlagFlags & flags); /* Extract only the bits we want      */
    384c:	e0bffc17 	ldw	r2,-16(fp)
    3850:	1080020b 	ldhu	r2,8(r2)
    3854:	0084303a 	nor	r2,zero,r2
    3858:	1007883a 	mov	r3,r2
    385c:	e0bffd0b 	ldhu	r2,-12(fp)
    3860:	1884703a 	and	r2,r3,r2
    3864:	e0bff30d 	sth	r2,-52(fp)
             if (flags_rdy != (OS_FLAGS)0) {               /* See if any flag cleared                  */
    3868:	e0bff30b 	ldhu	r2,-52(fp)
    386c:	10000b26 	beq	r2,zero,389c <OSFlagAccept+0x2b0>
                 if (consume == OS_TRUE) {                 /* See if we need to consume the flags      */
    3870:	e0bff383 	ldbu	r2,-50(fp)
    3874:	10800058 	cmpnei	r2,r2,1
    3878:	10000b1e 	bne	r2,zero,38a8 <OSFlagAccept+0x2bc>
                     pgrp->OSFlagFlags |= flags_rdy;       /* Set ONLY the flags that we got           */
    387c:	e0bffc17 	ldw	r2,-16(fp)
    3880:	10c0020b 	ldhu	r3,8(r2)
    3884:	e0bff30b 	ldhu	r2,-52(fp)
    3888:	1884b03a 	or	r2,r3,r2
    388c:	1007883a 	mov	r3,r2
    3890:	e0bffc17 	ldw	r2,-16(fp)
    3894:	10c0020d 	sth	r3,8(r2)
    3898:	00000306 	br	38a8 <OSFlagAccept+0x2bc>
                 }
             } else {
                 *perr = OS_ERR_FLAG_NOT_RDY;
    389c:	e0bfff17 	ldw	r2,-4(fp)
    38a0:	00c01c04 	movi	r3,112
    38a4:	10c00005 	stb	r3,0(r2)
    38a8:	e0bff417 	ldw	r2,-48(fp)
    38ac:	e0bffa15 	stw	r2,-24(fp)
    38b0:	e0bffa17 	ldw	r2,-24(fp)
    38b4:	1001703a 	wrctl	status,r2
             }
             OS_EXIT_CRITICAL();
             break;
    38b8:	00000906 	br	38e0 <OSFlagAccept+0x2f4>
    38bc:	e0bff417 	ldw	r2,-48(fp)
    38c0:	e0bffb15 	stw	r2,-20(fp)
    38c4:	e0bffb17 	ldw	r2,-20(fp)
    38c8:	1001703a 	wrctl	status,r2
#endif

        default:
             OS_EXIT_CRITICAL();
             flags_rdy = (OS_FLAGS)0;
    38cc:	e03ff30d 	sth	zero,-52(fp)
             *perr     = OS_ERR_FLAG_WAIT_TYPE;
    38d0:	e0bfff17 	ldw	r2,-4(fp)
    38d4:	00c01bc4 	movi	r3,111
    38d8:	10c00005 	stb	r3,0(r2)
             break;
    38dc:	0001883a 	nop
    }
    return (flags_rdy);
    38e0:	e0bff30b 	ldhu	r2,-52(fp)
}
    38e4:	e037883a 	mov	sp,fp
    38e8:	df000017 	ldw	fp,0(sp)
    38ec:	dec00104 	addi	sp,sp,4
    38f0:	f800283a 	ret

000038f4 <OSFlagCreate>:
* Called from: Task ONLY
*********************************************************************************************************
*/

OS_FLAG_GRP  *OSFlagCreate (OS_FLAGS flags, INT8U *perr)
{
    38f4:	defff804 	addi	sp,sp,-32
    38f8:	df000715 	stw	fp,28(sp)
    38fc:	df000704 	addi	fp,sp,28
    3900:	2005883a 	mov	r2,r4
    3904:	e17fff15 	stw	r5,-4(fp)
    3908:	e0bffe0d 	sth	r2,-8(fp)
    OS_FLAG_GRP *pgrp;
#if OS_CRITICAL_METHOD == 3                         /* Allocate storage for CPU status register        */
    OS_CPU_SR    cpu_sr = 0;
    390c:	e03ff915 	stw	zero,-28(fp)
#endif



#if OS_ARG_CHK_EN > 0
    if (perr == (INT8U *)0) {                       /* Validate 'perr'                                 */
    3910:	e0bfff17 	ldw	r2,-4(fp)
    3914:	1000021e 	bne	r2,zero,3920 <OSFlagCreate+0x2c>
        return ((OS_FLAG_GRP *)0);
    3918:	0005883a 	mov	r2,zero
    391c:	00003b06 	br	3a0c <OSFlagCreate+0x118>
    }
#endif
    if (OSIntNesting > 0) {                         /* See if called from ISR ...                      */
    3920:	00800074 	movhi	r2,1
    3924:	1082d704 	addi	r2,r2,2908
    3928:	10800003 	ldbu	r2,0(r2)
    392c:	10803fcc 	andi	r2,r2,255
    3930:	10000526 	beq	r2,zero,3948 <OSFlagCreate+0x54>
        *perr = OS_ERR_CREATE_ISR;                  /* ... can't CREATE from an ISR                    */
    3934:	e0bfff17 	ldw	r2,-4(fp)
    3938:	00c00404 	movi	r3,16
    393c:	10c00005 	stb	r3,0(r2)
        return ((OS_FLAG_GRP *)0);
    3940:	0005883a 	mov	r2,zero
    3944:	00003106 	br	3a0c <OSFlagCreate+0x118>
static ALT_INLINE alt_irq_context ALT_ALWAYS_INLINE 
       alt_irq_disable_all (void)
{
  alt_irq_context context;

  NIOS2_READ_STATUS (context);
    3948:	0005303a 	rdctl	r2,status
    394c:	e0bffb15 	stw	r2,-20(fp)

  NIOS2_WRITE_STATUS (context & ~NIOS2_STATUS_PIE_MSK);
    3950:	e0fffb17 	ldw	r3,-20(fp)
    3954:	00bfff84 	movi	r2,-2
    3958:	1884703a 	and	r2,r3,r2
    395c:	1001703a 	wrctl	status,r2
  
  return context;
    3960:	e0bffb17 	ldw	r2,-20(fp)
    }
    OS_ENTER_CRITICAL();
    3964:	e0bff915 	stw	r2,-28(fp)
    pgrp = OSFlagFreeList;                          /* Get next free event flag                        */
    3968:	00800074 	movhi	r2,1
    396c:	1082da04 	addi	r2,r2,2920
    3970:	10800017 	ldw	r2,0(r2)
    3974:	e0bffa15 	stw	r2,-24(fp)
    if (pgrp != (OS_FLAG_GRP *)0) {                 /* See if we have event flag groups available      */
    3978:	e0bffa17 	ldw	r2,-24(fp)
    397c:	10001b26 	beq	r2,zero,39ec <OSFlagCreate+0xf8>
                                                    /* Adjust free list                                */
        OSFlagFreeList       = (OS_FLAG_GRP *)OSFlagFreeList->OSFlagWaitList;
    3980:	00800074 	movhi	r2,1
    3984:	1082da04 	addi	r2,r2,2920
    3988:	10800017 	ldw	r2,0(r2)
