Archive member included to satisfy reference by file (symbol)

/home/codedwrench/Dropbox/school/nios/kbs_periode_4_fpga_game/playstationtest_bsp//libucosii_bsp.a(alt_load.o)
                              /home/codedwrench/Dropbox/school/nios/kbs_periode_4_fpga_game/playstationtest_bsp//obj/HAL/src/crt0.o (alt_load)
/home/codedwrench/Dropbox/school/nios/kbs_periode_4_fpga_game/playstationtest_bsp//libucosii_bsp.a(alt_main.o)
                              /home/codedwrench/Dropbox/school/nios/kbs_periode_4_fpga_game/playstationtest_bsp//obj/HAL/src/crt0.o (alt_main)
/home/codedwrench/Dropbox/school/nios/kbs_periode_4_fpga_game/playstationtest_bsp//libucosii_bsp.a(alt_env_lock.o)
                              /home/codedwrench/Dropbox/school/nios/kbs_periode_4_fpga_game/playstationtest_bsp//libucosii_bsp.a(alt_main.o) (alt_envsem)
/home/codedwrench/Dropbox/school/nios/kbs_periode_4_fpga_game/playstationtest_bsp//libucosii_bsp.a(alt_malloc_lock.o)
                              /home/codedwrench/Dropbox/school/nios/kbs_periode_4_fpga_game/playstationtest_bsp//libucosii_bsp.a(alt_main.o) (alt_heapsem)
/home/codedwrench/Dropbox/school/nios/kbs_periode_4_fpga_game/playstationtest_bsp//libucosii_bsp.a(os_core.o)
                              /home/codedwrench/Dropbox/school/nios/kbs_periode_4_fpga_game/playstationtest_bsp//libucosii_bsp.a(alt_malloc_lock.o) (OSRunning)
/home/codedwrench/Dropbox/school/nios/kbs_periode_4_fpga_game/playstationtest_bsp//libucosii_bsp.a(os_dbg.o)
                              /home/codedwrench/Dropbox/school/nios/kbs_periode_4_fpga_game/playstationtest_bsp//libucosii_bsp.a(os_core.o) (OSDebugInit)
/home/codedwrench/Dropbox/school/nios/kbs_periode_4_fpga_game/playstationtest_bsp//libucosii_bsp.a(os_flag.o)
                              /home/codedwrench/Dropbox/school/nios/kbs_periode_4_fpga_game/playstationtest_bsp//libucosii_bsp.a(os_core.o) (OS_FlagInit)
/home/codedwrench/Dropbox/school/nios/kbs_periode_4_fpga_game/playstationtest_bsp//libucosii_bsp.a(os_mem.o)
                              /home/codedwrench/Dropbox/school/nios/kbs_periode_4_fpga_game/playstationtest_bsp//libucosii_bsp.a(os_core.o) (OS_MemInit)
/home/codedwrench/Dropbox/school/nios/kbs_periode_4_fpga_game/playstationtest_bsp//libucosii_bsp.a(os_q.o)
                              /home/codedwrench/Dropbox/school/nios/kbs_periode_4_fpga_game/playstationtest_bsp//libucosii_bsp.a(os_core.o) (OS_QInit)
/home/codedwrench/Dropbox/school/nios/kbs_periode_4_fpga_game/playstationtest_bsp//libucosii_bsp.a(os_sem.o)
                              /home/codedwrench/Dropbox/school/nios/kbs_periode_4_fpga_game/playstationtest_bsp//libucosii_bsp.a(alt_main.o) (OSSemCreate)
/home/codedwrench/Dropbox/school/nios/kbs_periode_4_fpga_game/playstationtest_bsp//libucosii_bsp.a(os_task.o)
                              obj/default/main.o (OSTaskCreateExt)
/home/codedwrench/Dropbox/school/nios/kbs_periode_4_fpga_game/playstationtest_bsp//libucosii_bsp.a(os_time.o)
                              obj/default/main.o (OSTimeDly)
/home/codedwrench/Dropbox/school/nios/kbs_periode_4_fpga_game/playstationtest_bsp//libucosii_bsp.a(alt_sys_init.o)
                              /home/codedwrench/Dropbox/school/nios/kbs_periode_4_fpga_game/playstationtest_bsp//libucosii_bsp.a(alt_main.o) (alt_irq_init)
/home/codedwrench/Dropbox/school/nios/kbs_periode_4_fpga_game/playstationtest_bsp//libucosii_bsp.a(altera_avalon_jtag_uart_fd.o)
                              /home/codedwrench/Dropbox/school/nios/kbs_periode_4_fpga_game/playstationtest_bsp//libucosii_bsp.a(alt_sys_init.o) (altera_avalon_jtag_uart_read_fd)
/home/codedwrench/Dropbox/school/nios/kbs_periode_4_fpga_game/playstationtest_bsp//libucosii_bsp.a(altera_avalon_jtag_uart_init.o)
                              /home/codedwrench/Dropbox/school/nios/kbs_periode_4_fpga_game/playstationtest_bsp//libucosii_bsp.a(alt_sys_init.o) (altera_avalon_jtag_uart_init)
/home/codedwrench/Dropbox/school/nios/kbs_periode_4_fpga_game/playstationtest_bsp//libucosii_bsp.a(altera_avalon_jtag_uart_ioctl.o)
                              /home/codedwrench/Dropbox/school/nios/kbs_periode_4_fpga_game/playstationtest_bsp//libucosii_bsp.a(altera_avalon_jtag_uart_fd.o) (altera_avalon_jtag_uart_ioctl)
/home/codedwrench/Dropbox/school/nios/kbs_periode_4_fpga_game/playstationtest_bsp//libucosii_bsp.a(altera_avalon_jtag_uart_read.o)
                              /home/codedwrench/Dropbox/school/nios/kbs_periode_4_fpga_game/playstationtest_bsp//libucosii_bsp.a(altera_avalon_jtag_uart_fd.o) (altera_avalon_jtag_uart_read)
/home/codedwrench/Dropbox/school/nios/kbs_periode_4_fpga_game/playstationtest_bsp//libucosii_bsp.a(altera_avalon_jtag_uart_write.o)
                              /home/codedwrench/Dropbox/school/nios/kbs_periode_4_fpga_game/playstationtest_bsp//libucosii_bsp.a(altera_avalon_jtag_uart_fd.o) (altera_avalon_jtag_uart_write)
/home/codedwrench/Dropbox/school/nios/kbs_periode_4_fpga_game/playstationtest_bsp//libucosii_bsp.a(altera_avalon_timer_sc.o)
                              /home/codedwrench/Dropbox/school/nios/kbs_periode_4_fpga_game/playstationtest_bsp//libucosii_bsp.a(alt_sys_init.o) (alt_avalon_timer_sc_init)
/home/codedwrench/Dropbox/school/nios/kbs_periode_4_fpga_game/playstationtest_bsp//libucosii_bsp.a(altera_up_avalon_character_lcd.o)
                              /home/codedwrench/Dropbox/school/nios/kbs_periode_4_fpga_game/playstationtest_bsp//libucosii_bsp.a(alt_sys_init.o) (alt_up_character_lcd_init)
/home/codedwrench/Dropbox/school/nios/kbs_periode_4_fpga_game/playstationtest_bsp//libucosii_bsp.a(altera_up_avalon_irda.o)
                              /home/codedwrench/Dropbox/school/nios/kbs_periode_4_fpga_game/playstationtest_bsp//libucosii_bsp.a(alt_sys_init.o) (alt_up_irda_read_fd)
/home/codedwrench/Dropbox/school/nios/kbs_periode_4_fpga_game/playstationtest_bsp//libucosii_bsp.a(altera_up_avalon_ps2.o)
                              /home/codedwrench/Dropbox/school/nios/kbs_periode_4_fpga_game/playstationtest_bsp//libucosii_bsp.a(alt_sys_init.o) (alt_up_ps2_init)
/home/codedwrench/Dropbox/school/nios/kbs_periode_4_fpga_game/playstationtest_bsp//libucosii_bsp.a(altera_up_avalon_rs232.o)
                              /home/codedwrench/Dropbox/school/nios/kbs_periode_4_fpga_game/playstationtest_bsp//libucosii_bsp.a(alt_sys_init.o) (alt_up_rs232_read_fd)
/home/codedwrench/Dropbox/school/nios/kbs_periode_4_fpga_game/playstationtest_bsp//libucosii_bsp.a(altera_up_avalon_video_character_buffer_with_dma.o)
                              /home/codedwrench/Dropbox/school/nios/kbs_periode_4_fpga_game/playstationtest_bsp//libucosii_bsp.a(alt_sys_init.o) (alt_up_char_buffer_init)
/home/codedwrench/Dropbox/school/nios/kbs_periode_4_fpga_game/playstationtest_bsp//libucosii_bsp.a(alt_alarm_start.o)
                              /home/codedwrench/Dropbox/school/nios/kbs_periode_4_fpga_game/playstationtest_bsp//libucosii_bsp.a(altera_avalon_jtag_uart_init.o) (alt_alarm_start)
/home/codedwrench/Dropbox/school/nios/kbs_periode_4_fpga_game/playstationtest_bsp//libucosii_bsp.a(alt_close.o)
                              /home/codedwrench/Dropbox/school/nios/kbs_periode_4_fpga_game/playstationtest_bsp//libucosii_bsp.a(alt_main.o) (close)
/home/codedwrench/Dropbox/school/nios/kbs_periode_4_fpga_game/playstationtest_bsp//libucosii_bsp.a(alt_dcache_flush_all.o)
                              /home/codedwrench/Dropbox/school/nios/kbs_periode_4_fpga_game/playstationtest_bsp//libucosii_bsp.a(alt_load.o) (alt_dcache_flush_all)
/home/codedwrench/Dropbox/school/nios/kbs_periode_4_fpga_game/playstationtest_bsp//libucosii_bsp.a(alt_dev.o)
                              /home/codedwrench/Dropbox/school/nios/kbs_periode_4_fpga_game/playstationtest_bsp//libucosii_bsp.a(alt_sys_init.o) (alt_dev_list)
/home/codedwrench/Dropbox/school/nios/kbs_periode_4_fpga_game/playstationtest_bsp//libucosii_bsp.a(alt_dev_llist_insert.o)
                              /home/codedwrench/Dropbox/school/nios/kbs_periode_4_fpga_game/playstationtest_bsp//libucosii_bsp.a(alt_sys_init.o) (alt_dev_llist_insert)
/home/codedwrench/Dropbox/school/nios/kbs_periode_4_fpga_game/playstationtest_bsp//libucosii_bsp.a(alt_do_ctors.o)
                              /home/codedwrench/Dropbox/school/nios/kbs_periode_4_fpga_game/playstationtest_bsp//libucosii_bsp.a(alt_main.o) (_do_ctors)
/home/codedwrench/Dropbox/school/nios/kbs_periode_4_fpga_game/playstationtest_bsp//libucosii_bsp.a(alt_do_dtors.o)
                              /home/codedwrench/Dropbox/school/nios/kbs_periode_4_fpga_game/playstationtest_bsp//libucosii_bsp.a(alt_main.o) (_do_dtors)
/home/codedwrench/Dropbox/school/nios/kbs_periode_4_fpga_game/playstationtest_bsp//libucosii_bsp.a(alt_errno.o)
                              /home/codedwrench/Dropbox/school/nios/kbs_periode_4_fpga_game/playstationtest_bsp//libucosii_bsp.a(alt_close.o) (alt_errno)
/home/codedwrench/Dropbox/school/nios/kbs_periode_4_fpga_game/playstationtest_bsp//libucosii_bsp.a(alt_find_dev.o)
                              /home/codedwrench/Dropbox/school/nios/kbs_periode_4_fpga_game/playstationtest_bsp//libucosii_bsp.a(altera_up_avalon_character_lcd.o) (alt_find_dev)
/home/codedwrench/Dropbox/school/nios/kbs_periode_4_fpga_game/playstationtest_bsp//libucosii_bsp.a(alt_icache_flush_all.o)
                              /home/codedwrench/Dropbox/school/nios/kbs_periode_4_fpga_game/playstationtest_bsp//libucosii_bsp.a(alt_load.o) (alt_icache_flush_all)
/home/codedwrench/Dropbox/school/nios/kbs_periode_4_fpga_game/playstationtest_bsp//libucosii_bsp.a(alt_io_redirect.o)
                              /home/codedwrench/Dropbox/school/nios/kbs_periode_4_fpga_game/playstationtest_bsp//libucosii_bsp.a(alt_main.o) (alt_io_redirect)
/home/codedwrench/Dropbox/school/nios/kbs_periode_4_fpga_game/playstationtest_bsp//libucosii_bsp.a(alt_irq_register.o)
                              /home/codedwrench/Dropbox/school/nios/kbs_periode_4_fpga_game/playstationtest_bsp//libucosii_bsp.a(altera_avalon_jtag_uart_init.o) (alt_irq_register)
/home/codedwrench/Dropbox/school/nios/kbs_periode_4_fpga_game/playstationtest_bsp//libucosii_bsp.a(alt_irq_vars.o)
                              /home/codedwrench/Dropbox/school/nios/kbs_periode_4_fpga_game/playstationtest_bsp//libucosii_bsp.a(alt_irq_register.o) (alt_irq_active)
/home/codedwrench/Dropbox/school/nios/kbs_periode_4_fpga_game/playstationtest_bsp//libucosii_bsp.a(alt_open.o)
                              /home/codedwrench/Dropbox/school/nios/kbs_periode_4_fpga_game/playstationtest_bsp//libucosii_bsp.a(alt_io_redirect.o) (open)
/home/codedwrench/Dropbox/school/nios/kbs_periode_4_fpga_game/playstationtest_bsp//libucosii_bsp.a(alt_release_fd.o)
                              /home/codedwrench/Dropbox/school/nios/kbs_periode_4_fpga_game/playstationtest_bsp//libucosii_bsp.a(alt_close.o) (alt_release_fd)
/home/codedwrench/Dropbox/school/nios/kbs_periode_4_fpga_game/playstationtest_bsp//libucosii_bsp.a(alt_tick.o)
                              /home/codedwrench/Dropbox/school/nios/kbs_periode_4_fpga_game/playstationtest_bsp//libucosii_bsp.a(altera_avalon_jtag_uart_init.o) (_alt_tick_rate)
/home/codedwrench/Dropbox/school/nios/kbs_periode_4_fpga_game/playstationtest_bsp//libucosii_bsp.a(altera_nios2_gen2_irq.o)
                              /home/codedwrench/Dropbox/school/nios/kbs_periode_4_fpga_game/playstationtest_bsp//libucosii_bsp.a(alt_sys_init.o) (altera_nios2_gen2_irq_init)
/home/codedwrench/Dropbox/school/nios/kbs_periode_4_fpga_game/playstationtest_bsp//libucosii_bsp.a(os_cpu_a.o)
                              /home/codedwrench/Dropbox/school/nios/kbs_periode_4_fpga_game/playstationtest_bsp//libucosii_bsp.a(os_core.o) (OSIntCtxSw)
/home/codedwrench/Dropbox/school/nios/kbs_periode_4_fpga_game/playstationtest_bsp//libucosii_bsp.a(os_cpu_c.o)
                              /home/codedwrench/Dropbox/school/nios/kbs_periode_4_fpga_game/playstationtest_bsp//libucosii_bsp.a(os_task.o) (OSTaskStkInit)
/home/codedwrench/Dropbox/school/nios/kbs_periode_4_fpga_game/playstationtest_bsp//libucosii_bsp.a(alt_find_file.o)
                              /home/codedwrench/Dropbox/school/nios/kbs_periode_4_fpga_game/playstationtest_bsp//libucosii_bsp.a(alt_open.o) (alt_find_file)
/home/codedwrench/Dropbox/school/nios/kbs_periode_4_fpga_game/playstationtest_bsp//libucosii_bsp.a(alt_get_fd.o)
                              /home/codedwrench/Dropbox/school/nios/kbs_periode_4_fpga_game/playstationtest_bsp//libucosii_bsp.a(alt_open.o) (alt_get_fd)
/home/codedwrench/Dropbox/school/nios/kbs_periode_4_fpga_game/playstationtest_bsp//libucosii_bsp.a(alt_icache_flush.o)
                              /home/codedwrench/Dropbox/school/nios/kbs_periode_4_fpga_game/playstationtest_bsp//libucosii_bsp.a(alt_icache_flush_all.o) (alt_icache_flush)
/home/codedwrench/Dropbox/school/nios/kbs_periode_4_fpga_game/playstationtest_bsp//libucosii_bsp.a(alt_irq_entry.o)
                              /home/codedwrench/Dropbox/school/nios/kbs_periode_4_fpga_game/playstationtest_bsp//libucosii_bsp.a(alt_irq_register.o) (alt_irq_entry)
/home/codedwrench/Dropbox/school/nios/kbs_periode_4_fpga_game/playstationtest_bsp//libucosii_bsp.a(alt_irq_handler.o)
                              /home/codedwrench/Dropbox/school/nios/kbs_periode_4_fpga_game/playstationtest_bsp//libucosii_bsp.a(alt_irq_register.o) (alt_irq)
/home/codedwrench/Dropbox/school/nios/kbs_periode_4_fpga_game/playstationtest_bsp//libucosii_bsp.a(alt_exception_entry.o)
                              /home/codedwrench/Dropbox/school/nios/kbs_periode_4_fpga_game/playstationtest_bsp//libucosii_bsp.a(alt_irq_entry.o) (alt_exception)
/home/codedwrench/Dropbox/school/nios/kbs_periode_4_fpga_game/playstationtest_bsp//libucosii_bsp.a(alt_instruction_exception_entry.o)
                              /home/codedwrench/Dropbox/school/nios/kbs_periode_4_fpga_game/playstationtest_bsp//libucosii_bsp.a(alt_exception_entry.o) (alt_instruction_exception_entry)
/mnt/ssddata/altera_lite/15.1/nios2eds/bin/gnu/H-x86_64-pc-linux-gnu/bin/../lib/gcc/nios2-elf/4.9.2/../../../../../H-x86_64-pc-linux-gnu/nios2-elf/lib/mhw-mulx/libc.a(lib_a-atexit.o)
                              /home/codedwrench/Dropbox/school/nios/kbs_periode_4_fpga_game/playstationtest_bsp//libucosii_bsp.a(alt_main.o) (atexit)
/mnt/ssddata/altera_lite/15.1/nios2eds/bin/gnu/H-x86_64-pc-linux-gnu/bin/../lib/gcc/nios2-elf/4.9.2/../../../../../H-x86_64-pc-linux-gnu/nios2-elf/lib/mhw-mulx/libc.a(lib_a-exit.o)
                              /home/codedwrench/Dropbox/school/nios/kbs_periode_4_fpga_game/playstationtest_bsp//libucosii_bsp.a(alt_main.o) (exit)
/mnt/ssddata/altera_lite/15.1/nios2eds/bin/gnu/H-x86_64-pc-linux-gnu/bin/../lib/gcc/nios2-elf/4.9.2/../../../../../H-x86_64-pc-linux-gnu/nios2-elf/lib/mhw-mulx/libc.a(lib_a-impure.o)
                              /mnt/ssddata/altera_lite/15.1/nios2eds/bin/gnu/H-x86_64-pc-linux-gnu/bin/../lib/gcc/nios2-elf/4.9.2/../../../../../H-x86_64-pc-linux-gnu/nios2-elf/lib/mhw-mulx/libc.a(lib_a-exit.o) (_global_impure_ptr)
/mnt/ssddata/altera_lite/15.1/nios2eds/bin/gnu/H-x86_64-pc-linux-gnu/bin/../lib/gcc/nios2-elf/4.9.2/../../../../../H-x86_64-pc-linux-gnu/nios2-elf/lib/mhw-mulx/libc.a(lib_a-int_errno.o)
                              /home/codedwrench/Dropbox/school/nios/kbs_periode_4_fpga_game/playstationtest_bsp//libucosii_bsp.a(alt_close.o) (errno)
/mnt/ssddata/altera_lite/15.1/nios2eds/bin/gnu/H-x86_64-pc-linux-gnu/bin/../lib/gcc/nios2-elf/4.9.2/../../../../../H-x86_64-pc-linux-gnu/nios2-elf/lib/mhw-mulx/libc.a(lib_a-memcmp.o)
                              /home/codedwrench/Dropbox/school/nios/kbs_periode_4_fpga_game/playstationtest_bsp//libucosii_bsp.a(alt_find_dev.o) (memcmp)
/mnt/ssddata/altera_lite/15.1/nios2eds/bin/gnu/H-x86_64-pc-linux-gnu/bin/../lib/gcc/nios2-elf/4.9.2/../../../../../H-x86_64-pc-linux-gnu/nios2-elf/lib/mhw-mulx/libc.a(lib_a-memcpy.o)
                              /home/codedwrench/Dropbox/school/nios/kbs_periode_4_fpga_game/playstationtest_bsp//libucosii_bsp.a(altera_avalon_jtag_uart_read.o) (memcpy)
/mnt/ssddata/altera_lite/15.1/nios2eds/bin/gnu/H-x86_64-pc-linux-gnu/bin/../lib/gcc/nios2-elf/4.9.2/../../../../../H-x86_64-pc-linux-gnu/nios2-elf/lib/mhw-mulx/libc.a(lib_a-memset.o)
                              /home/codedwrench/Dropbox/school/nios/kbs_periode_4_fpga_game/playstationtest_bsp//libucosii_bsp.a(os_cpu_c.o) (memset)
/mnt/ssddata/altera_lite/15.1/nios2eds/bin/gnu/H-x86_64-pc-linux-gnu/bin/../lib/gcc/nios2-elf/4.9.2/../../../../../H-x86_64-pc-linux-gnu/nios2-elf/lib/mhw-mulx/libc.a(lib_a-strcmp.o)
                              /home/codedwrench/Dropbox/school/nios/kbs_periode_4_fpga_game/playstationtest_bsp//libucosii_bsp.a(altera_up_avalon_video_character_buffer_with_dma.o) (strcmp)
/mnt/ssddata/altera_lite/15.1/nios2eds/bin/gnu/H-x86_64-pc-linux-gnu/bin/../lib/gcc/nios2-elf/4.9.2/../../../../../H-x86_64-pc-linux-gnu/nios2-elf/lib/mhw-mulx/libc.a(lib_a-strlen.o)
                              /home/codedwrench/Dropbox/school/nios/kbs_periode_4_fpga_game/playstationtest_bsp//libucosii_bsp.a(alt_find_dev.o) (strlen)
/mnt/ssddata/altera_lite/15.1/nios2eds/bin/gnu/H-x86_64-pc-linux-gnu/bin/../lib/gcc/nios2-elf/4.9.2/../../../../../H-x86_64-pc-linux-gnu/nios2-elf/lib/mhw-mulx/libc.a(lib_a-__atexit.o)
                              /mnt/ssddata/altera_lite/15.1/nios2eds/bin/gnu/H-x86_64-pc-linux-gnu/bin/../lib/gcc/nios2-elf/4.9.2/../../../../../H-x86_64-pc-linux-gnu/nios2-elf/lib/mhw-mulx/libc.a(lib_a-atexit.o) (__register_exitproc)
/mnt/ssddata/altera_lite/15.1/nios2eds/bin/gnu/H-x86_64-pc-linux-gnu/bin/../lib/gcc/nios2-elf/4.9.2/../../../../../H-x86_64-pc-linux-gnu/nios2-elf/lib/mhw-mulx/libc.a(lib_a-__call_atexit.o)
                              /mnt/ssddata/altera_lite/15.1/nios2eds/bin/gnu/H-x86_64-pc-linux-gnu/bin/../lib/gcc/nios2-elf/4.9.2/../../../../../H-x86_64-pc-linux-gnu/nios2-elf/lib/mhw-mulx/libc.a(lib_a-exit.o) (__call_exitprocs)
/home/codedwrench/Dropbox/school/nios/kbs_periode_4_fpga_game/playstationtest_bsp//libucosii_bsp.a(alt_exit.o)
                              /mnt/ssddata/altera_lite/15.1/nios2eds/bin/gnu/H-x86_64-pc-linux-gnu/bin/../lib/gcc/nios2-elf/4.9.2/../../../../../H-x86_64-pc-linux-gnu/nios2-elf/lib/mhw-mulx/libc.a(lib_a-exit.o) (_exit)

Allocating common symbols
Common symbol       size              file

alt_irq             0x100             /home/codedwrench/Dropbox/school/nios/kbs_periode_4_fpga_game/playstationtest_bsp//libucosii_bsp.a(alt_irq_handler.o)
task1_stk           0x2000            obj/default/main.o
OSLockNesting       0x1               /home/codedwrench/Dropbox/school/nios/kbs_periode_4_fpga_game/playstationtest_bsp//libucosii_bsp.a(os_core.o)
OSRunning           0x1               /home/codedwrench/Dropbox/school/nios/kbs_periode_4_fpga_game/playstationtest_bsp//libucosii_bsp.a(os_core.o)
OSIdleCtr           0x4               /home/codedwrench/Dropbox/school/nios/kbs_periode_4_fpga_game/playstationtest_bsp//libucosii_bsp.a(os_core.o)
OSPrioHighRdy       0x1               /home/codedwrench/Dropbox/school/nios/kbs_periode_4_fpga_game/playstationtest_bsp//libucosii_bsp.a(os_core.o)
errno               0x4               /mnt/ssddata/altera_lite/15.1/nios2eds/bin/gnu/H-x86_64-pc-linux-gnu/bin/../lib/gcc/nios2-elf/4.9.2/../../../../../H-x86_64-pc-linux-gnu/nios2-elf/lib/mhw-mulx/libc.a(lib_a-int_errno.o)
alt_heapsem         0x4               /home/codedwrench/Dropbox/school/nios/kbs_periode_4_fpga_game/playstationtest_bsp//libucosii_bsp.a(alt_malloc_lock.o)
OSFlagTbl           0x370             /home/codedwrench/Dropbox/school/nios/kbs_periode_4_fpga_game/playstationtest_bsp//libucosii_bsp.a(os_core.o)
OSPrioCur           0x1               /home/codedwrench/Dropbox/school/nios/kbs_periode_4_fpga_game/playstationtest_bsp//libucosii_bsp.a(os_core.o)
OSTCBList           0x4               /home/codedwrench/Dropbox/school/nios/kbs_periode_4_fpga_game/playstationtest_bsp//libucosii_bsp.a(os_core.o)
alt_fd_list_lock    0x4               /home/codedwrench/Dropbox/school/nios/kbs_periode_4_fpga_game/playstationtest_bsp//libucosii_bsp.a(alt_dev.o)
OSMemTbl            0xc30             /home/codedwrench/Dropbox/school/nios/kbs_periode_4_fpga_game/playstationtest_bsp//libucosii_bsp.a(os_core.o)
OSTickStepState     0x1               /home/codedwrench/Dropbox/school/nios/kbs_periode_4_fpga_game/playstationtest_bsp//libucosii_bsp.a(os_core.o)
OSTaskStatStk       0x800             /home/codedwrench/Dropbox/school/nios/kbs_periode_4_fpga_game/playstationtest_bsp//libucosii_bsp.a(os_core.o)
OSCtxSwCtr          0x4               /home/codedwrench/Dropbox/school/nios/kbs_periode_4_fpga_game/playstationtest_bsp//libucosii_bsp.a(os_core.o)
OSIdleCtrMax        0x4               /home/codedwrench/Dropbox/school/nios/kbs_periode_4_fpga_game/playstationtest_bsp//libucosii_bsp.a(os_core.o)
OSTCBFreeList       0x4               /home/codedwrench/Dropbox/school/nios/kbs_periode_4_fpga_game/playstationtest_bsp//libucosii_bsp.a(os_core.o)
OSCPUUsage          0x1               /home/codedwrench/Dropbox/school/nios/kbs_periode_4_fpga_game/playstationtest_bsp//libucosii_bsp.a(os_core.o)
OSTaskCtr           0x1               /home/codedwrench/Dropbox/school/nios/kbs_periode_4_fpga_game/playstationtest_bsp//libucosii_bsp.a(os_core.o)
OSMemFreeList       0x4               /home/codedwrench/Dropbox/school/nios/kbs_periode_4_fpga_game/playstationtest_bsp//libucosii_bsp.a(os_core.o)
OSQTbl              0x1e0             /home/codedwrench/Dropbox/school/nios/kbs_periode_4_fpga_game/playstationtest_bsp//libucosii_bsp.a(os_core.o)
OSTCBHighRdy        0x4               /home/codedwrench/Dropbox/school/nios/kbs_periode_4_fpga_game/playstationtest_bsp//libucosii_bsp.a(os_core.o)
OSQFreeList         0x4               /home/codedwrench/Dropbox/school/nios/kbs_periode_4_fpga_game/playstationtest_bsp//libucosii_bsp.a(os_core.o)
OSRdyGrp            0x1               /home/codedwrench/Dropbox/school/nios/kbs_periode_4_fpga_game/playstationtest_bsp//libucosii_bsp.a(os_core.o)
task2_stk           0x2000            obj/default/main.o
OSRdyTbl            0x3               /home/codedwrench/Dropbox/school/nios/kbs_periode_4_fpga_game/playstationtest_bsp//libucosii_bsp.a(os_core.o)
OSEventFreeList     0x4               /home/codedwrench/Dropbox/school/nios/kbs_periode_4_fpga_game/playstationtest_bsp//libucosii_bsp.a(os_core.o)
OSIntNesting        0x1               /home/codedwrench/Dropbox/school/nios/kbs_periode_4_fpga_game/playstationtest_bsp//libucosii_bsp.a(os_core.o)
OSTCBCur            0x4               /home/codedwrench/Dropbox/school/nios/kbs_periode_4_fpga_game/playstationtest_bsp//libucosii_bsp.a(os_core.o)
OSTime              0x4               /home/codedwrench/Dropbox/school/nios/kbs_periode_4_fpga_game/playstationtest_bsp//libucosii_bsp.a(os_core.o)
OSTaskIdleStk       0x800             /home/codedwrench/Dropbox/school/nios/kbs_periode_4_fpga_game/playstationtest_bsp//libucosii_bsp.a(os_core.o)
OSEventTbl          0xb40             /home/codedwrench/Dropbox/school/nios/kbs_periode_4_fpga_game/playstationtest_bsp//libucosii_bsp.a(os_core.o)
OSTCBTbl            0x510             /home/codedwrench/Dropbox/school/nios/kbs_periode_4_fpga_game/playstationtest_bsp//libucosii_bsp.a(os_core.o)
OSFlagFreeList      0x4               /home/codedwrench/Dropbox/school/nios/kbs_periode_4_fpga_game/playstationtest_bsp//libucosii_bsp.a(os_core.o)
OSStatRdy           0x1               /home/codedwrench/Dropbox/school/nios/kbs_periode_4_fpga_game/playstationtest_bsp//libucosii_bsp.a(os_core.o)
OSTCBPrioTbl        0x54              /home/codedwrench/Dropbox/school/nios/kbs_periode_4_fpga_game/playstationtest_bsp//libucosii_bsp.a(os_core.o)
alt_envsem          0x4               /home/codedwrench/Dropbox/school/nios/kbs_periode_4_fpga_game/playstationtest_bsp//libucosii_bsp.a(alt_env_lock.o)
OSIdleCtrRun        0x4               /home/codedwrench/Dropbox/school/nios/kbs_periode_4_fpga_game/playstationtest_bsp//libucosii_bsp.a(os_core.o)

Memory Configuration

Name             Origin             Length             Attributes
reset            0x0000000000000000 0x0000000000000020
SDRAM            0x0000000000000020 0x0000000003ffffe0
Flash_flash_data 0x000000000c000000 0x0000000000800000
*default*        0x0000000000000000 0xffffffffffffffff

Linker script and memory map

LOAD /home/codedwrench/Dropbox/school/nios/kbs_periode_4_fpga_game/playstationtest_bsp//obj/HAL/src/crt0.o
LOAD obj/default/graphicslib.o
LOAD obj/default/main.o
LOAD /mnt/ssddata/altera_lite/15.1/nios2eds/bin/gnu/H-x86_64-pc-linux-gnu/bin/../lib/gcc/nios2-elf/4.9.2/../../../../../H-x86_64-pc-linux-gnu/nios2-elf/lib/mhw-mulx/libstdc++.a
LOAD /mnt/ssddata/altera_lite/15.1/nios2eds/bin/gnu/H-x86_64-pc-linux-gnu/bin/../lib/gcc/nios2-elf/4.9.2/../../../../../H-x86_64-pc-linux-gnu/nios2-elf/lib/mhw-mulx/libm.a
LOAD /mnt/ssddata/altera_lite/15.1/nios2eds/bin/gnu/H-x86_64-pc-linux-gnu/bin/../lib/gcc/nios2-elf/4.9.2/mhw-mulx/libgcc.a
START GROUP
LOAD /mnt/ssddata/altera_lite/15.1/nios2eds/bin/gnu/H-x86_64-pc-linux-gnu/bin/../lib/gcc/nios2-elf/4.9.2/../../../../../H-x86_64-pc-linux-gnu/nios2-elf/lib/mhw-mulx/libc.a
LOAD /mnt/ssddata/altera_lite/15.1/nios2eds/bin/gnu/H-x86_64-pc-linux-gnu/bin/../lib/gcc/nios2-elf/4.9.2/mhw-mulx/libgcc.a
LOAD /home/codedwrench/Dropbox/school/nios/kbs_periode_4_fpga_game/playstationtest_bsp//libucosii_bsp.a
LOAD /mnt/ssddata/altera_lite/15.1/nios2eds/bin/gnu/H-x86_64-pc-linux-gnu/bin/../lib/gcc/nios2-elf/4.9.2/../../../../../H-x86_64-pc-linux-gnu/nios2-elf/lib/mhw-mulx/libm.a
END GROUP
LOAD /mnt/ssddata/altera_lite/15.1/nios2eds/bin/gnu/H-x86_64-pc-linux-gnu/bin/../lib/gcc/nios2-elf/4.9.2/mhw-mulx/libgcc.a
                0x0000000000000000                __alt_mem_SDRAM = 0x0
                0x000000000c000000                __alt_mem_Flash_flash_data = 0xc000000

.entry          0x0000000000000000       0x20
 *(.entry)
 .entry         0x0000000000000000       0x20 /home/codedwrench/Dropbox/school/nios/kbs_periode_4_fpga_game/playstationtest_bsp//obj/HAL/src/crt0.o
                0x0000000000000000                __reset

.exceptions     0x0000000000000020      0x224
                0x0000000000000020                PROVIDE (__ram_exceptions_start, ABSOLUTE (.))
                0x0000000000000020                . = ALIGN (0x20)
 *(.irq)
 *(.exceptions.entry.label)
 .exceptions.entry.label
                0x0000000000000020        0x0 /home/codedwrench/Dropbox/school/nios/kbs_periode_4_fpga_game/playstationtest_bsp//libucosii_bsp.a(alt_irq_entry.o)
                0x0000000000000020                alt_irq_entry
 .exceptions.entry.label
                0x0000000000000020        0x0 /home/codedwrench/Dropbox/school/nios/kbs_periode_4_fpga_game/playstationtest_bsp//libucosii_bsp.a(alt_exception_entry.o)
                0x0000000000000020                alt_exception
 *(.exceptions.entry.user)
 *(.exceptions.entry.ecc_fatal)
 *(.exceptions.entry)
 .exceptions.entry
                0x0000000000000020       0x54 /home/codedwrench/Dropbox/school/nios/kbs_periode_4_fpga_game/playstationtest_bsp//libucosii_bsp.a(alt_exception_entry.o)
 *(.exceptions.irqtest.user)
 *(.exceptions.irqtest)
 .exceptions.irqtest
                0x0000000000000074       0x10 /home/codedwrench/Dropbox/school/nios/kbs_periode_4_fpga_game/playstationtest_bsp//libucosii_bsp.a(alt_irq_entry.o)
 *(.exceptions.irqhandler.user)
 *(.exceptions.irqhandler)
 .exceptions.irqhandler
                0x0000000000000084        0x4 /home/codedwrench/Dropbox/school/nios/kbs_periode_4_fpga_game/playstationtest_bsp//libucosii_bsp.a(alt_irq_entry.o)
 *(.exceptions.irqreturn.user)
 *(.exceptions.irqreturn)
 .exceptions.irqreturn
                0x0000000000000088        0x4 /home/codedwrench/Dropbox/school/nios/kbs_periode_4_fpga_game/playstationtest_bsp//libucosii_bsp.a(alt_irq_entry.o)
 *(.exceptions.notirq.label)
 .exceptions.notirq.label
                0x000000000000008c        0x0 /home/codedwrench/Dropbox/school/nios/kbs_periode_4_fpga_game/playstationtest_bsp//libucosii_bsp.a(alt_irq_entry.o)
 *(.exceptions.notirq.user)
 *(.exceptions.notirq)
 .exceptions.notirq
                0x000000000000008c        0x8 /home/codedwrench/Dropbox/school/nios/kbs_periode_4_fpga_game/playstationtest_bsp//libucosii_bsp.a(alt_exception_entry.o)
 *(.exceptions.soft.user)
 *(.exceptions.soft)
 *(.exceptions.unknown.user)
 *(.exceptions.unknown)
 .exceptions.unknown
                0x0000000000000094       0x14 /home/codedwrench/Dropbox/school/nios/kbs_periode_4_fpga_game/playstationtest_bsp//libucosii_bsp.a(alt_exception_entry.o)
 *(.exceptions.exit.label)
 .exceptions.exit.label
                0x00000000000000a8        0x0 /home/codedwrench/Dropbox/school/nios/kbs_periode_4_fpga_game/playstationtest_bsp//libucosii_bsp.a(alt_irq_entry.o)
 .exceptions.exit.label
                0x00000000000000a8        0x0 /home/codedwrench/Dropbox/school/nios/kbs_periode_4_fpga_game/playstationtest_bsp//libucosii_bsp.a(alt_exception_entry.o)
 *(.exceptions.exit.user)
 *(.exceptions.exit)
 .exceptions.exit
                0x00000000000000a8       0x54 /home/codedwrench/Dropbox/school/nios/kbs_periode_4_fpga_game/playstationtest_bsp//libucosii_bsp.a(alt_exception_entry.o)
 *(.exceptions)
 .exceptions    0x00000000000000fc       0xd4 /home/codedwrench/Dropbox/school/nios/kbs_periode_4_fpga_game/playstationtest_bsp//libucosii_bsp.a(alt_irq_handler.o)
                0x00000000000000fc                alt_irq_handler
 .exceptions    0x00000000000001d0       0x74 /home/codedwrench/Dropbox/school/nios/kbs_periode_4_fpga_game/playstationtest_bsp//libucosii_bsp.a(alt_instruction_exception_entry.o)
                0x00000000000001d0                alt_instruction_exception_entry
                0x0000000000000244                PROVIDE (__ram_exceptions_end, ABSOLUTE (.))
                0x0000000000000020                PROVIDE (__flash_exceptions_start, LOADADDR (.exceptions))

.text           0x0000000000000244     0xd0e0
                0x0000000000000244                PROVIDE (stext, ABSOLUTE (.))
 *(.interp)
 *(.hash)
 *(.dynsym)
 *(.dynstr)
 *(.gnu.version)
 *(.gnu.version_d)
 *(.gnu.version_r)
 *(.rel.init)
 *(.rela.init)
 *(.rel.text .rel.text.* .rel.gnu.linkonce.t.*)
 *(.rela.text .rela.text.* .rela.gnu.linkonce.t.*)
 *(.rel.fini)
 *(.rela.fini)
 *(.rel.rodata .rel.rodata.* .rel.gnu.linkonce.r.*)
 *(.rela.rodata .rela.rodata.* .rela.gnu.linkonce.r.*)
 *(.rel.data .rel.data.* .rel.gnu.linkonce.d.*)
 *(.rela.data .rela.data.* .rela.gnu.linkonce.d.*)
 *(.rel.tdata .rel.tdata.* .rel.gnu.linkonce.td.*)
 *(.rela.tdata .rela.tdata.* .rela.gnu.linkonce.td.*)
 *(.rel.tbss .rel.tbss.* .rel.gnu.linkonce.tb.*)
 *(.rela.tbss .rela.tbss.* .rela.gnu.linkonce.tb.*)
 *(.rel.ctors)
 *(.rela.ctors)
 *(.rel.dtors)
 *(.rela.dtors)
 *(.rel.got)
 *(.rela.got)
 *(.rel.sdata .rel.sdata.* .rel.gnu.linkonce.s.*)
 *(.rela.sdata .rela.sdata.* .rela.gnu.linkonce.s.*)
 *(.rel.sbss .rel.sbss.* .rel.gnu.linkonce.sb.*)
 *(.rela.sbss .rela.sbss.* .rela.gnu.linkonce.sb.*)
 *(.rel.sdata2 .rel.sdata2.* .rel.gnu.linkonce.s2.*)
 *(.rela.sdata2 .rela.sdata2.* .rela.gnu.linkonce.s2.*)
 *(.rel.sbss2 .rel.sbss2.* .rel.gnu.linkonce.sb2.*)
 *(.rela.sbss2 .rela.sbss2.* .rela.gnu.linkonce.sb2.*)
 *(.rel.bss .rel.bss.* .rel.gnu.linkonce.b.*)
 *(.rela.bss .rela.bss.* .rela.gnu.linkonce.b.*)
 *(.rel.plt)
 *(.rela.plt)
 *(.rel.dyn)
 *(.init)
 *(.plt)
 *(.text .stub .text.* .gnu.linkonce.t.*)
 .text          0x0000000000000244       0x3c /home/codedwrench/Dropbox/school/nios/kbs_periode_4_fpga_game/playstationtest_bsp//obj/HAL/src/crt0.o
                0x0000000000000244                _start
 .text          0x0000000000000280      0x850 obj/default/graphicslib.o
                0x0000000000000280                clearscreen
                0x0000000000000334                drawbox
                0x0000000000000400                drawrectangle
                0x0000000000000544                drawline
                0x000000000000075c                drawcircle
                0x00000000000009f4                wait_for_vsync
                0x0000000000000a3c                drawtext
 .text          0x0000000000000ad0      0x4dc obj/default/main.o
                0x0000000000000ad0                task1
                0x0000000000000e50                task2
                0x0000000000000e98                main
 .text          0x0000000000000fac       0xe4 /home/codedwrench/Dropbox/school/nios/kbs_periode_4_fpga_game/playstationtest_bsp//libucosii_bsp.a(alt_load.o)
                0x0000000000001010                alt_load
 .text          0x0000000000001090       0xd4 /home/codedwrench/Dropbox/school/nios/kbs_periode_4_fpga_game/playstationtest_bsp//libucosii_bsp.a(alt_main.o)
                0x0000000000001090                alt_main
 .text          0x0000000000001164      0x11c /home/codedwrench/Dropbox/school/nios/kbs_periode_4_fpga_game/playstationtest_bsp//libucosii_bsp.a(alt_env_lock.o)
                0x0000000000001164                __env_lock
                0x0000000000001224                __env_unlock
 .text          0x0000000000001280      0x1f0 /home/codedwrench/Dropbox/school/nios/kbs_periode_4_fpga_game/playstationtest_bsp//libucosii_bsp.a(alt_malloc_lock.o)
                0x0000000000001280                __malloc_lock
                0x00000000000013a0                __malloc_unlock
 .text          0x0000000000001470     0x1ff0 /home/codedwrench/Dropbox/school/nios/kbs_periode_4_fpga_game/playstationtest_bsp//libucosii_bsp.a(os_core.o)
                0x0000000000001470                OSEventNameGet
                0x0000000000001590                OSEventNameSet
                0x00000000000016cc                OSEventPendMulti
                0x0000000000001cdc                OSInit
                0x0000000000001d30                OSIntEnter
                0x0000000000001dac                OSIntExit
                0x0000000000001ea0                OSSchedLock
                0x0000000000001f28                OSSchedUnlock
                0x0000000000002000                OSStart
                0x000000000000206c                OSStatInit
                0x0000000000002118                OSTimeTick
                0x0000000000002334                OSVersion
                0x0000000000002354                OS_Dummy
                0x0000000000002370                OS_EventTaskRdy
                0x0000000000002508                OS_EventTaskWait
                0x0000000000002614                OS_EventTaskWaitMulti
                0x0000000000002760                OS_EventTaskRemove
                0x0000000000002814                OS_EventTaskRemoveMulti
                0x0000000000002910                OS_EventWaitListInit
                0x0000000000002cd4                OS_MemClr
                0x0000000000002d24                OS_MemCopy
                0x0000000000002d88                OS_Sched
                0x0000000000002ec4                OS_StrCopy
                0x0000000000002f38                OS_StrLen
                0x0000000000002f8c                OS_TaskIdle
                0x0000000000002fe8                OS_TaskStat
                0x00000000000030c4                OS_TaskStatStkChk
                0x000000000000318c                OS_TCBInit
 .text          0x0000000000003460      0x18c /home/codedwrench/Dropbox/school/nios/kbs_periode_4_fpga_game/playstationtest_bsp//libucosii_bsp.a(os_dbg.o)
                0x0000000000003460                OSDebugInit
 .text          0x00000000000035ec     0x181c /home/codedwrench/Dropbox/school/nios/kbs_periode_4_fpga_game/playstationtest_bsp//libucosii_bsp.a(os_flag.o)
                0x00000000000035ec                OSFlagAccept
                0x00000000000038f4                OSFlagCreate
                0x0000000000003a1c                OSFlagDel
                0x0000000000003c8c                OSFlagNameGet
                0x0000000000003dbc                OSFlagNameSet
                0x0000000000003f0c                OSFlagPend
                0x00000000000044fc                OSFlagPendGetFlagsRdy
                0x0000000000004564                OSFlagPost
                0x00000000000048ec                OSFlagQuery
                0x0000000000004b74                OS_FlagInit
                0x0000000000004d68                OS_FlagUnlink
 .text          0x0000000000004e08      0x784 /home/codedwrench/Dropbox/school/nios/kbs_periode_4_fpga_game/playstationtest_bsp//libucosii_bsp.a(os_mem.o)
                0x0000000000004e08                OSMemCreate
                0x0000000000004ffc                OSMemGet
                0x00000000000050ec                OSMemNameGet
                0x00000000000051e4                OSMemNameSet
                0x00000000000052fc                OSMemPut
                0x00000000000053d4                OSMemQuery
                0x00000000000054bc                OS_MemInit
 .text          0x000000000000558c     0x1210 /home/codedwrench/Dropbox/school/nios/kbs_periode_4_fpga_game/playstationtest_bsp//libucosii_bsp.a(os_q.o)
                0x000000000000558c                OSQAccept
                0x00000000000056cc                OSQCreate
                0x00000000000058c8                OSQDel
                0x0000000000005b90                OSQFlush
                0x0000000000005c48                OSQPend
                0x0000000000005f44                OSQPendAbort
                0x00000000000060b0                OSQPost
                0x0000000000006218                OSQPostFront
                0x0000000000006388                OSQPostOpt
                0x0000000000006594                OSQQuery
                0x00000000000066f0                OS_QInit
 .text          0x000000000000679c      0xb08 /home/codedwrench/Dropbox/school/nios/kbs_periode_4_fpga_game/playstationtest_bsp//libucosii_bsp.a(os_sem.o)
                0x000000000000679c                OSSemAccept
                0x000000000000684c                OSSemCreate
                0x000000000000694c                OSSemDel
                0x0000000000006bb4                OSSemPend
                0x0000000000006e1c                OSSemPendAbort
                0x0000000000006f88                OSSemPost
                0x0000000000007098                OSSemQuery
                0x00000000000071a8                OSSemSet
 .text          0x00000000000072a4     0x18f4 /home/codedwrench/Dropbox/school/nios/kbs_periode_4_fpga_game/playstationtest_bsp//libucosii_bsp.a(os_task.o)
                0x00000000000072a4                OSTaskChangePrio
                0x00000000000077e4                OSTaskCreate
                0x00000000000079a0                OSTaskCreateExt
                0x0000000000007b8c                OSTaskDel
                0x0000000000007f6c                OSTaskDelReq
                0x00000000000080c4                OSTaskNameGet
                0x000000000000826c                OSTaskNameSet
                0x000000000000842c                OSTaskResume
                0x0000000000008624                OSTaskStkChk
                0x00000000000087ec                OSTaskSuspend
                0x0000000000008a00                OSTaskQuery
                0x0000000000008b2c                OS_TaskStkClr
 .text          0x0000000000008b98      0x568 /home/codedwrench/Dropbox/school/nios/kbs_periode_4_fpga_game/playstationtest_bsp//libucosii_bsp.a(os_time.o)
                0x0000000000008b98                OSTimeDly
                0x0000000000008ce0                OSTimeDlyHMSM
                0x0000000000008e48                OSTimeDlyResume
                0x0000000000009038                OSTimeGet
                0x000000000000909c                OSTimeSet
 .text          0x0000000000009100      0x444 /home/codedwrench/Dropbox/school/nios/kbs_periode_4_fpga_game/playstationtest_bsp//libucosii_bsp.a(alt_sys_init.o)
                0x0000000000009138                alt_irq_init
                0x000000000000916c                alt_sys_init
 .text          0x0000000000009544      0x164 /home/codedwrench/Dropbox/school/nios/kbs_periode_4_fpga_game/playstationtest_bsp//libucosii_bsp.a(altera_avalon_jtag_uart_fd.o)
                0x0000000000009544                altera_avalon_jtag_uart_read_fd
                0x00000000000095a4                altera_avalon_jtag_uart_write_fd
                0x0000000000009604                altera_avalon_jtag_uart_close_fd
                0x0000000000009654                altera_avalon_jtag_uart_ioctl_fd
 .text          0x00000000000096a8      0x560 /home/codedwrench/Dropbox/school/nios/kbs_periode_4_fpga_game/playstationtest_bsp//libucosii_bsp.a(altera_avalon_jtag_uart_init.o)
                0x00000000000096a8                altera_avalon_jtag_uart_init
                0x0000000000009ba0                altera_avalon_jtag_uart_close
 .text          0x0000000000009c08       0xec /home/codedwrench/Dropbox/school/nios/kbs_periode_4_fpga_game/playstationtest_bsp//libucosii_bsp.a(altera_avalon_jtag_uart_ioctl.o)
                0x0000000000009c08                altera_avalon_jtag_uart_ioctl
 .text          0x0000000000009cf4      0x2b4 /home/codedwrench/Dropbox/school/nios/kbs_periode_4_fpga_game/playstationtest_bsp//libucosii_bsp.a(altera_avalon_jtag_uart_read.o)
                0x0000000000009cf4                altera_avalon_jtag_uart_read
 .text          0x0000000000009fa8      0x2c0 /home/codedwrench/Dropbox/school/nios/kbs_periode_4_fpga_game/playstationtest_bsp//libucosii_bsp.a(altera_avalon_jtag_uart_write.o)
                0x0000000000009fa8                altera_avalon_jtag_uart_write
 .text          0x000000000000a268       0xf8 /home/codedwrench/Dropbox/school/nios/kbs_periode_4_fpga_game/playstationtest_bsp//libucosii_bsp.a(altera_avalon_timer_sc.o)
                0x000000000000a2e0                alt_avalon_timer_sc_init
 .text          0x000000000000a360      0x4d8 /home/codedwrench/Dropbox/school/nios/kbs_periode_4_fpga_game/playstationtest_bsp//libucosii_bsp.a(altera_up_avalon_character_lcd.o)
                0x000000000000a360                get_DDRAM_addr
                0x000000000000a3d4                alt_up_character_lcd_send_cmd
                0x000000000000a410                alt_up_character_lcd_init
                0x000000000000a444                alt_up_character_lcd_open_dev
                0x000000000000a484                alt_up_character_lcd_write
                0x000000000000a4fc                alt_up_character_lcd_string
                0x000000000000a570                alt_up_character_lcd_write_fd
                0x000000000000a5c0                alt_up_character_lcd_set_cursor_pos
                0x000000000000a634                alt_up_character_lcd_shift_cursor
                0x000000000000a6bc                alt_up_character_lcd_shift_display
                0x000000000000a744                alt_up_character_lcd_erase_pos
                0x000000000000a7d0                alt_up_character_lcd_cursor_off
                0x000000000000a804                alt_up_character_lcd_cursor_blink_on
 .text          0x000000000000a838      0x388 /home/codedwrench/Dropbox/school/nios/kbs_periode_4_fpga_game/playstationtest_bsp//libucosii_bsp.a(altera_up_avalon_irda.o)
                0x000000000000a838                alt_up_irda_enable_read_interrupt
                0x000000000000a890                alt_up_irda_disable_read_interrupt
                0x000000000000a8ec                alt_up_irda_get_used_space_in_read_FIFO
                0x000000000000a92c                alt_up_irda_get_available_space_in_write_FIFO
                0x000000000000a968                alt_up_irda_check_parity
                0x000000000000a9ac                alt_up_irda_write_data
                0x000000000000a9ec                alt_up_irda_read_data
                0x000000000000aa60                alt_up_irda_read_fd
                0x000000000000aaf0                alt_up_irda_write_fd
                0x000000000000ab80                alt_up_irda_open_dev
 .text          0x000000000000abc0      0x6b4 /home/codedwrench/Dropbox/school/nios/kbs_periode_4_fpga_game/playstationtest_bsp//libucosii_bsp.a(altera_up_avalon_ps2.o)
                0x000000000000abc0                read_RI_bit
                0x000000000000abf4                read_RE_bit
                0x000000000000ac24                read_CE_bit
                0x000000000000ac58                read_num_bytes_available
                0x000000000000ac88                read_data_valid
                0x000000000000acbc                read_data_byte
                0x000000000000ace8                alt_up_ps2_init
                0x000000000000adac                alt_up_ps2_enable_read_interrupt
                0x000000000000ae04                alt_up_ps2_disable_read_interrupt
                0x000000000000ae60                alt_up_ps2_write_data_byte
                0x000000000000aed4                alt_up_ps2_wait_for_ack
                0x000000000000af44                alt_up_ps2_write_data_byte_with_ack
                0x000000000000afa8                alt_up_ps2_read_data_byte_timeout
                0x000000000000b04c                alt_up_ps2_read_data_byte
                0x000000000000b0bc                alt_up_ps2_clear_fifo
                0x000000000000b110                alt_up_ps2_read_fd
                0x000000000000b19c                alt_up_ps2_write_fd
                0x000000000000b234                alt_up_ps2_open_dev
 .text          0x000000000000b274      0x38c /home/codedwrench/Dropbox/school/nios/kbs_periode_4_fpga_game/playstationtest_bsp//libucosii_bsp.a(altera_up_avalon_rs232.o)
                0x000000000000b274                alt_up_rs232_enable_read_interrupt
                0x000000000000b2cc                alt_up_rs232_disable_read_interrupt
                0x000000000000b328                alt_up_rs232_get_used_space_in_read_FIFO
                0x000000000000b368                alt_up_rs232_get_available_space_in_write_FIFO
                0x000000000000b3a4                alt_up_rs232_check_parity
                0x000000000000b3e8                alt_up_rs232_write_data
                0x000000000000b428                alt_up_rs232_read_data
                0x000000000000b49c                alt_up_rs232_read_fd
                0x000000000000b52c                alt_up_rs232_write_fd
                0x000000000000b5c0                alt_up_rs232_open_dev
 .text          0x000000000000b600      0x2e8 /home/codedwrench/Dropbox/school/nios/kbs_periode_4_fpga_game/playstationtest_bsp//libucosii_bsp.a(altera_up_avalon_video_character_buffer_with_dma.o)
                0x000000000000b600                alt_up_char_buffer_init
                0x000000000000b680                alt_up_char_buffer_open_dev
                0x000000000000b6c0                alt_up_char_buffer_draw
                0x000000000000b78c                alt_up_char_buffer_string
                0x000000000000b88c                alt_up_char_buffer_clear
 .text          0x000000000000b8e8      0x140 /home/codedwrench/Dropbox/school/nios/kbs_periode_4_fpga_game/playstationtest_bsp//libucosii_bsp.a(alt_alarm_start.o)
                0x000000000000b8e8                alt_alarm_start
 .text          0x000000000000ba28      0x120 /home/codedwrench/Dropbox/school/nios/kbs_periode_4_fpga_game/playstationtest_bsp//libucosii_bsp.a(alt_close.o)
                0x000000000000ba78                close
 .text          0x000000000000bb48       0x1c /home/codedwrench/Dropbox/school/nios/kbs_periode_4_fpga_game/playstationtest_bsp//libucosii_bsp.a(alt_dcache_flush_all.o)
                0x000000000000bb48                alt_dcache_flush_all
 .text          0x000000000000bb64       0x2c /home/codedwrench/Dropbox/school/nios/kbs_periode_4_fpga_game/playstationtest_bsp//libucosii_bsp.a(alt_dev.o)
 .text          0x000000000000bb90       0xf4 /home/codedwrench/Dropbox/school/nios/kbs_periode_4_fpga_game/playstationtest_bsp//libucosii_bsp.a(alt_dev_llist_insert.o)
                0x000000000000bbe0                alt_dev_llist_insert
 .text          0x000000000000bc84       0x5c /home/codedwrench/Dropbox/school/nios/kbs_periode_4_fpga_game/playstationtest_bsp//libucosii_bsp.a(alt_do_ctors.o)
                0x000000000000bc84                _do_ctors
 .text          0x000000000000bce0       0x5c /home/codedwrench/Dropbox/school/nios/kbs_periode_4_fpga_game/playstationtest_bsp//libucosii_bsp.a(alt_do_dtors.o)
                0x000000000000bce0                _do_dtors
 .text          0x000000000000bd3c        0x0 /home/codedwrench/Dropbox/school/nios/kbs_periode_4_fpga_game/playstationtest_bsp//libucosii_bsp.a(alt_errno.o)
 .text          0x000000000000bd3c       0x90 /home/codedwrench/Dropbox/school/nios/kbs_periode_4_fpga_game/playstationtest_bsp//libucosii_bsp.a(alt_find_dev.o)
                0x000000000000bd3c                alt_find_dev
 .text          0x000000000000bdcc       0x30 /home/codedwrench/Dropbox/school/nios/kbs_periode_4_fpga_game/playstationtest_bsp//libucosii_bsp.a(alt_icache_flush_all.o)
                0x000000000000bdcc                alt_icache_flush_all
 .text          0x000000000000bdfc      0x138 /home/codedwrench/Dropbox/school/nios/kbs_periode_4_fpga_game/playstationtest_bsp//libucosii_bsp.a(alt_io_redirect.o)
                0x000000000000bebc                alt_io_redirect
 .text          0x000000000000bf34      0x1b0 /home/codedwrench/Dropbox/school/nios/kbs_periode_4_fpga_game/playstationtest_bsp//libucosii_bsp.a(alt_irq_register.o)
                0x000000000000bf34                alt_irq_register
 .text          0x000000000000c0e4        0x0 /home/codedwrench/Dropbox/school/nios/kbs_periode_4_fpga_game/playstationtest_bsp//libucosii_bsp.a(alt_irq_vars.o)
 .text          0x000000000000c0e4      0x274 /home/codedwrench/Dropbox/school/nios/kbs_periode_4_fpga_game/playstationtest_bsp//libucosii_bsp.a(alt_open.o)
                0x000000000000c200                open
 .text          0x000000000000c358       0x60 /home/codedwrench/Dropbox/school/nios/kbs_periode_4_fpga_game/playstationtest_bsp//libucosii_bsp.a(alt_release_fd.o)
                0x000000000000c358                alt_release_fd
 .text          0x000000000000c3b8      0x19c /home/codedwrench/Dropbox/school/nios/kbs_periode_4_fpga_game/playstationtest_bsp//libucosii_bsp.a(alt_tick.o)
                0x000000000000c3b8                alt_alarm_stop
                0x000000000000c450                alt_tick
 .text          0x000000000000c554       0x20 /home/codedwrench/Dropbox/school/nios/kbs_periode_4_fpga_game/playstationtest_bsp//libucosii_bsp.a(altera_nios2_gen2_irq.o)
                0x000000000000c554                altera_nios2_gen2_irq_init
 .text          0x000000000000c574       0xd0 /home/codedwrench/Dropbox/school/nios/kbs_periode_4_fpga_game/playstationtest_bsp//libucosii_bsp.a(os_cpu_a.o)
                0x000000000000c574                OSCtxSw
                0x000000000000c574                OSIntCtxSw
                0x000000000000c600                OSStartHighRdy
                0x000000000000c620                OSStartTsk
 .text          0x000000000000c644      0x264 /home/codedwrench/Dropbox/school/nios/kbs_periode_4_fpga_game/playstationtest_bsp//libucosii_bsp.a(os_cpu_c.o)
                0x000000000000c644                OSTaskStkInit
                0x000000000000c7a0                OSTaskCreateHook
                0x000000000000c7c0                OSTaskDelHook
                0x000000000000c7e0                OSTaskSwHook
                0x000000000000c7fc                OSTaskStatHook
                0x000000000000c818                OSTimeTickHook
                0x000000000000c834                OSInitHookBegin
                0x000000000000c850                OSInitHookEnd
                0x000000000000c86c                OSTaskIdleHook
                0x000000000000c888                OSTCBInitHook
 .text          0x000000000000c8a8      0x114 /home/codedwrench/Dropbox/school/nios/kbs_periode_4_fpga_game/playstationtest_bsp//libucosii_bsp.a(alt_find_file.o)
                0x000000000000c8a8                alt_find_file
 .text          0x000000000000c9bc       0xfc /home/codedwrench/Dropbox/school/nios/kbs_periode_4_fpga_game/playstationtest_bsp//libucosii_bsp.a(alt_get_fd.o)
                0x000000000000c9bc                alt_get_fd
 .text          0x000000000000cab8       0x8c /home/codedwrench/Dropbox/school/nios/kbs_periode_4_fpga_game/playstationtest_bsp//libucosii_bsp.a(alt_icache_flush.o)
                0x000000000000cab8                alt_icache_flush
 .text          0x000000000000cb44        0x0 /home/codedwrench/Dropbox/school/nios/kbs_periode_4_fpga_game/playstationtest_bsp//libucosii_bsp.a(alt_irq_entry.o)
 .text          0x000000000000cb44        0x0 /home/codedwrench/Dropbox/school/nios/kbs_periode_4_fpga_game/playstationtest_bsp//libucosii_bsp.a(alt_irq_handler.o)
 .text          0x000000000000cb44        0x0 /home/codedwrench/Dropbox/school/nios/kbs_periode_4_fpga_game/playstationtest_bsp//libucosii_bsp.a(alt_exception_entry.o)
 .text          0x000000000000cb44       0x9c /home/codedwrench/Dropbox/school/nios/kbs_periode_4_fpga_game/playstationtest_bsp//libucosii_bsp.a(alt_instruction_exception_entry.o)
                0x000000000000cb44                alt_exception_cause_generated_bad_addr
 .text          0x000000000000cbe0        0x0 /mnt/ssddata/altera_lite/15.1/nios2eds/bin/gnu/H-x86_64-pc-linux-gnu/bin/../lib/gcc/nios2-elf/4.9.2/../../../../../H-x86_64-pc-linux-gnu/nios2-elf/lib/mhw-mulx/libc.a(lib_a-atexit.o)
 .text.atexit   0x000000000000cbe0       0x14 /mnt/ssddata/altera_lite/15.1/nios2eds/bin/gnu/H-x86_64-pc-linux-gnu/bin/../lib/gcc/nios2-elf/4.9.2/../../../../../H-x86_64-pc-linux-gnu/nios2-elf/lib/mhw-mulx/libc.a(lib_a-atexit.o)
                0x000000000000cbe0                atexit
 .text          0x000000000000cbf4        0x0 /mnt/ssddata/altera_lite/15.1/nios2eds/bin/gnu/H-x86_64-pc-linux-gnu/bin/../lib/gcc/nios2-elf/4.9.2/../../../../../H-x86_64-pc-linux-gnu/nios2-elf/lib/mhw-mulx/libc.a(lib_a-exit.o)
 .text.exit     0x000000000000cbf4       0x38 /mnt/ssddata/altera_lite/15.1/nios2eds/bin/gnu/H-x86_64-pc-linux-gnu/bin/../lib/gcc/nios2-elf/4.9.2/../../../../../H-x86_64-pc-linux-gnu/nios2-elf/lib/mhw-mulx/libc.a(lib_a-exit.o)
                0x000000000000cbf4                exit
 .text          0x000000000000cc2c        0x0 /mnt/ssddata/altera_lite/15.1/nios2eds/bin/gnu/H-x86_64-pc-linux-gnu/bin/../lib/gcc/nios2-elf/4.9.2/../../../../../H-x86_64-pc-linux-gnu/nios2-elf/lib/mhw-mulx/libc.a(lib_a-impure.o)
 .text          0x000000000000cc2c        0x0 /mnt/ssddata/altera_lite/15.1/nios2eds/bin/gnu/H-x86_64-pc-linux-gnu/bin/../lib/gcc/nios2-elf/4.9.2/../../../../../H-x86_64-pc-linux-gnu/nios2-elf/lib/mhw-mulx/libc.a(lib_a-int_errno.o)
 .text          0x000000000000cc2c        0x0 /mnt/ssddata/altera_lite/15.1/nios2eds/bin/gnu/H-x86_64-pc-linux-gnu/bin/../lib/gcc/nios2-elf/4.9.2/../../../../../H-x86_64-pc-linux-gnu/nios2-elf/lib/mhw-mulx/libc.a(lib_a-memcmp.o)
 .text.memcmp   0x000000000000cc2c       0x7c /mnt/ssddata/altera_lite/15.1/nios2eds/bin/gnu/H-x86_64-pc-linux-gnu/bin/../lib/gcc/nios2-elf/4.9.2/../../../../../H-x86_64-pc-linux-gnu/nios2-elf/lib/mhw-mulx/libc.a(lib_a-memcmp.o)
                0x000000000000cc2c                memcmp
 .text          0x000000000000cca8        0x0 /mnt/ssddata/altera_lite/15.1/nios2eds/bin/gnu/H-x86_64-pc-linux-gnu/bin/../lib/gcc/nios2-elf/4.9.2/../../../../../H-x86_64-pc-linux-gnu/nios2-elf/lib/mhw-mulx/libc.a(lib_a-memcpy.o)
 .text.memcpy   0x000000000000cca8      0x138 /mnt/ssddata/altera_lite/15.1/nios2eds/bin/gnu/H-x86_64-pc-linux-gnu/bin/../lib/gcc/nios2-elf/4.9.2/../../../../../H-x86_64-pc-linux-gnu/nios2-elf/lib/mhw-mulx/libc.a(lib_a-memcpy.o)
                0x000000000000cca8                memcpy
 .text          0x000000000000cde0        0x0 /mnt/ssddata/altera_lite/15.1/nios2eds/bin/gnu/H-x86_64-pc-linux-gnu/bin/../lib/gcc/nios2-elf/4.9.2/../../../../../H-x86_64-pc-linux-gnu/nios2-elf/lib/mhw-mulx/libc.a(lib_a-memset.o)
 .text.memset   0x000000000000cde0      0x124 /mnt/ssddata/altera_lite/15.1/nios2eds/bin/gnu/H-x86_64-pc-linux-gnu/bin/../lib/gcc/nios2-elf/4.9.2/../../../../../H-x86_64-pc-linux-gnu/nios2-elf/lib/mhw-mulx/libc.a(lib_a-memset.o)
                0x000000000000cde0                memset
 .text          0x000000000000cf04        0x0 /mnt/ssddata/altera_lite/15.1/nios2eds/bin/gnu/H-x86_64-pc-linux-gnu/bin/../lib/gcc/nios2-elf/4.9.2/../../../../../H-x86_64-pc-linux-gnu/nios2-elf/lib/mhw-mulx/libc.a(lib_a-strcmp.o)
 .text.strcmp   0x000000000000cf04       0xa4 /mnt/ssddata/altera_lite/15.1/nios2eds/bin/gnu/H-x86_64-pc-linux-gnu/bin/../lib/gcc/nios2-elf/4.9.2/../../../../../H-x86_64-pc-linux-gnu/nios2-elf/lib/mhw-mulx/libc.a(lib_a-strcmp.o)
                0x000000000000cf04                strcmp
 .text          0x000000000000cfa8        0x0 /mnt/ssddata/altera_lite/15.1/nios2eds/bin/gnu/H-x86_64-pc-linux-gnu/bin/../lib/gcc/nios2-elf/4.9.2/../../../../../H-x86_64-pc-linux-gnu/nios2-elf/lib/mhw-mulx/libc.a(lib_a-strlen.o)
 .text.strlen   0x000000000000cfa8       0x98 /mnt/ssddata/altera_lite/15.1/nios2eds/bin/gnu/H-x86_64-pc-linux-gnu/bin/../lib/gcc/nios2-elf/4.9.2/../../../../../H-x86_64-pc-linux-gnu/nios2-elf/lib/mhw-mulx/libc.a(lib_a-strlen.o)
                0x000000000000cfa8                strlen
 .text          0x000000000000d040        0x0 /mnt/ssddata/altera_lite/15.1/nios2eds/bin/gnu/H-x86_64-pc-linux-gnu/bin/../lib/gcc/nios2-elf/4.9.2/../../../../../H-x86_64-pc-linux-gnu/nios2-elf/lib/mhw-mulx/libc.a(lib_a-__atexit.o)
 .text.__register_exitproc
                0x000000000000d040      0x114 /mnt/ssddata/altera_lite/15.1/nios2eds/bin/gnu/H-x86_64-pc-linux-gnu/bin/../lib/gcc/nios2-elf/4.9.2/../../../../../H-x86_64-pc-linux-gnu/nios2-elf/lib/mhw-mulx/libc.a(lib_a-__atexit.o)
                0x000000000000d040                __register_exitproc
 .text          0x000000000000d154        0x0 /mnt/ssddata/altera_lite/15.1/nios2eds/bin/gnu/H-x86_64-pc-linux-gnu/bin/../lib/gcc/nios2-elf/4.9.2/../../../../../H-x86_64-pc-linux-gnu/nios2-elf/lib/mhw-mulx/libc.a(lib_a-__call_atexit.o)
 .text.__call_exitprocs
                0x000000000000d154      0x194 /mnt/ssddata/altera_lite/15.1/nios2eds/bin/gnu/H-x86_64-pc-linux-gnu/bin/../lib/gcc/nios2-elf/4.9.2/../../../../../H-x86_64-pc-linux-gnu/nios2-elf/lib/mhw-mulx/libc.a(lib_a-__call_atexit.o)
                0x000000000000d154                __call_exitprocs
 .text          0x000000000000d2e8       0x3c /home/codedwrench/Dropbox/school/nios/kbs_periode_4_fpga_game/playstationtest_bsp//libucosii_bsp.a(alt_exit.o)
                0x000000000000d2e8                _exit
 *(.gnu.warning.*)
 *(.fini)
                0x000000000000d324                PROVIDE (__etext, ABSOLUTE (.))
                0x000000000000d324                PROVIDE (_etext, ABSOLUTE (.))
                0x000000000000d324                PROVIDE (etext, ABSOLUTE (.))
 *(.eh_frame_hdr)
                0x000000000000d324                . = ALIGN (0x4)
                0x000000000000d324                PROVIDE (__preinit_array_start, ABSOLUTE (.))
 *(.preinit_array)
                0x000000000000d324                PROVIDE (__preinit_array_end, ABSOLUTE (.))
                0x000000000000d324                PROVIDE (__init_array_start, ABSOLUTE (.))
 *(.init_array)
                0x000000000000d324                PROVIDE (__init_array_end, ABSOLUTE (.))
                0x000000000000d324                PROVIDE (__fini_array_start, ABSOLUTE (.))
 *(.fini_array)
                0x000000000000d324                PROVIDE (__fini_array_end, ABSOLUTE (.))
 *(.eh_frame)
 *(.gcc_except_table .gcc_except_table.*)
 *(.dynamic)
                0x000000000000d324                PROVIDE (__CTOR_LIST__, ABSOLUTE (.))
 *(.ctors)
 *(SORT(.ctors.*))
                0x000000000000d324                PROVIDE (__CTOR_END__, ABSOLUTE (.))
                0x000000000000d324                PROVIDE (__DTOR_LIST__, ABSOLUTE (.))
 *(.dtors)
 *(SORT(.dtors.*))
                0x000000000000d324                PROVIDE (__DTOR_END__, ABSOLUTE (.))
 *(.jcr)
                0x000000000000d324                . = ALIGN (0x4)

.rodata         0x000000000000d324      0x2fc
                0x000000000000d324                PROVIDE (__ram_rodata_start, ABSOLUTE (.))
                0x000000000000d324                . = ALIGN (0x4)
 *(.rodata .rodata.* .gnu.linkonce.r.*)
 .rodata        0x000000000000d324        0xc obj/default/main.o
 .rodata        0x000000000000d330       0x10 /home/codedwrench/Dropbox/school/nios/kbs_periode_4_fpga_game/playstationtest_bsp//libucosii_bsp.a(alt_main.o)
 .rodata        0x000000000000d340      0x120 /home/codedwrench/Dropbox/school/nios/kbs_periode_4_fpga_game/playstationtest_bsp//libucosii_bsp.a(os_core.o)
                0x000000000000d340                OSUnMapTbl
 .rodata        0x000000000000d460      0x190 /home/codedwrench/Dropbox/school/nios/kbs_periode_4_fpga_game/playstationtest_bsp//libucosii_bsp.a(alt_sys_init.o)
 .rodata        0x000000000000d5f0       0x1c /home/codedwrench/Dropbox/school/nios/kbs_periode_4_fpga_game/playstationtest_bsp//libucosii_bsp.a(altera_up_avalon_video_character_buffer_with_dma.o)
 .rodata        0x000000000000d60c        0xc /home/codedwrench/Dropbox/school/nios/kbs_periode_4_fpga_game/playstationtest_bsp//libucosii_bsp.a(alt_dev.o)
 .rodata        0x000000000000d618        0x4 /home/codedwrench/Dropbox/school/nios/kbs_periode_4_fpga_game/playstationtest_bsp//libucosii_bsp.a(os_cpu_c.o)
 .rodata.str1.4
                0x000000000000d61c        0x4 /mnt/ssddata/altera_lite/15.1/nios2eds/bin/gnu/H-x86_64-pc-linux-gnu/bin/../lib/gcc/nios2-elf/4.9.2/../../../../../H-x86_64-pc-linux-gnu/nios2-elf/lib/mhw-mulx/libc.a(lib_a-impure.o)
 *(.rodata1)
                0x000000000000d620                . = ALIGN (0x4)
                0x000000000000d620                PROVIDE (__ram_rodata_end, ABSOLUTE (.))
                0x000000000000d324                PROVIDE (__flash_rodata_start, LOADADDR (.rodata))

.rwdata         0x000000000000d620     0x1a74 load address 0x000000000000f094
                0x000000000000d620                PROVIDE (__ram_rwdata_start, ABSOLUTE (.))
                0x000000000000d620                . = ALIGN (0x4)
 *(.got.plt)
 *(.got)
 *(.data1)
 *(.data .data.* .gnu.linkonce.d.*)
 .data          0x000000000000d620        0x0 /home/codedwrench/Dropbox/school/nios/kbs_periode_4_fpga_game/playstationtest_bsp//obj/HAL/src/crt0.o
 .data          0x000000000000d620        0x0 obj/default/graphicslib.o
 .data          0x000000000000d620        0x0 obj/default/main.o
 .data          0x000000000000d620        0x0 /home/codedwrench/Dropbox/school/nios/kbs_periode_4_fpga_game/playstationtest_bsp//libucosii_bsp.a(alt_load.o)
 .data          0x000000000000d620        0x0 /home/codedwrench/Dropbox/school/nios/kbs_periode_4_fpga_game/playstationtest_bsp//libucosii_bsp.a(alt_main.o)
 .data          0x000000000000d620        0x0 /home/codedwrench/Dropbox/school/nios/kbs_periode_4_fpga_game/playstationtest_bsp//libucosii_bsp.a(alt_env_lock.o)
 .data          0x000000000000d620        0x0 /home/codedwrench/Dropbox/school/nios/kbs_periode_4_fpga_game/playstationtest_bsp//libucosii_bsp.a(alt_malloc_lock.o)
 .data          0x000000000000d620        0x0 /home/codedwrench/Dropbox/school/nios/kbs_periode_4_fpga_game/playstationtest_bsp//libucosii_bsp.a(os_core.o)
 .data          0x000000000000d620        0x0 /home/codedwrench/Dropbox/school/nios/kbs_periode_4_fpga_game/playstationtest_bsp//libucosii_bsp.a(os_dbg.o)
 .data          0x000000000000d620        0x0 /home/codedwrench/Dropbox/school/nios/kbs_periode_4_fpga_game/playstationtest_bsp//libucosii_bsp.a(os_flag.o)
 .data          0x000000000000d620        0x0 /home/codedwrench/Dropbox/school/nios/kbs_periode_4_fpga_game/playstationtest_bsp//libucosii_bsp.a(os_mem.o)
 .data          0x000000000000d620        0x0 /home/codedwrench/Dropbox/school/nios/kbs_periode_4_fpga_game/playstationtest_bsp//libucosii_bsp.a(os_q.o)
 .data          0x000000000000d620        0x0 /home/codedwrench/Dropbox/school/nios/kbs_periode_4_fpga_game/playstationtest_bsp//libucosii_bsp.a(os_sem.o)
 .data          0x000000000000d620        0x0 /home/codedwrench/Dropbox/school/nios/kbs_periode_4_fpga_game/playstationtest_bsp//libucosii_bsp.a(os_task.o)
 .data          0x000000000000d620        0x0 /home/codedwrench/Dropbox/school/nios/kbs_periode_4_fpga_game/playstationtest_bsp//libucosii_bsp.a(os_time.o)
 .data          0x000000000000d620     0x13f0 /home/codedwrench/Dropbox/school/nios/kbs_periode_4_fpga_game/playstationtest_bsp//libucosii_bsp.a(alt_sys_init.o)
 .data          0x000000000000ea10        0x0 /home/codedwrench/Dropbox/school/nios/kbs_periode_4_fpga_game/playstationtest_bsp//libucosii_bsp.a(altera_avalon_jtag_uart_fd.o)
 .data          0x000000000000ea10        0x0 /home/codedwrench/Dropbox/school/nios/kbs_periode_4_fpga_game/playstationtest_bsp//libucosii_bsp.a(altera_avalon_jtag_uart_init.o)
 .data          0x000000000000ea10        0x0 /home/codedwrench/Dropbox/school/nios/kbs_periode_4_fpga_game/playstationtest_bsp//libucosii_bsp.a(altera_avalon_jtag_uart_ioctl.o)
 .data          0x000000000000ea10        0x0 /home/codedwrench/Dropbox/school/nios/kbs_periode_4_fpga_game/playstationtest_bsp//libucosii_bsp.a(altera_avalon_jtag_uart_read.o)
 .data          0x000000000000ea10        0x0 /home/codedwrench/Dropbox/school/nios/kbs_periode_4_fpga_game/playstationtest_bsp//libucosii_bsp.a(altera_avalon_jtag_uart_write.o)
 .data          0x000000000000ea10        0x0 /home/codedwrench/Dropbox/school/nios/kbs_periode_4_fpga_game/playstationtest_bsp//libucosii_bsp.a(altera_avalon_timer_sc.o)
 .data          0x000000000000ea10        0x0 /home/codedwrench/Dropbox/school/nios/kbs_periode_4_fpga_game/playstationtest_bsp//libucosii_bsp.a(altera_up_avalon_character_lcd.o)
 .data          0x000000000000ea10        0x0 /home/codedwrench/Dropbox/school/nios/kbs_periode_4_fpga_game/playstationtest_bsp//libucosii_bsp.a(altera_up_avalon_irda.o)
 .data          0x000000000000ea10        0x0 /home/codedwrench/Dropbox/school/nios/kbs_periode_4_fpga_game/playstationtest_bsp//libucosii_bsp.a(altera_up_avalon_ps2.o)
 .data          0x000000000000ea10        0x0 /home/codedwrench/Dropbox/school/nios/kbs_periode_4_fpga_game/playstationtest_bsp//libucosii_bsp.a(altera_up_avalon_rs232.o)
 .data          0x000000000000ea10        0x0 /home/codedwrench/Dropbox/school/nios/kbs_periode_4_fpga_game/playstationtest_bsp//libucosii_bsp.a(altera_up_avalon_video_character_buffer_with_dma.o)
 .data          0x000000000000ea10        0x0 /home/codedwrench/Dropbox/school/nios/kbs_periode_4_fpga_game/playstationtest_bsp//libucosii_bsp.a(alt_alarm_start.o)
 .data          0x000000000000ea10        0x0 /home/codedwrench/Dropbox/school/nios/kbs_periode_4_fpga_game/playstationtest_bsp//libucosii_bsp.a(alt_close.o)
 .data          0x000000000000ea10        0x0 /home/codedwrench/Dropbox/school/nios/kbs_periode_4_fpga_game/playstationtest_bsp//libucosii_bsp.a(alt_dcache_flush_all.o)
 .data          0x000000000000ea10      0x1a8 /home/codedwrench/Dropbox/school/nios/kbs_periode_4_fpga_game/playstationtest_bsp//libucosii_bsp.a(alt_dev.o)
                0x000000000000ea10                alt_dev_null
                0x000000000000ea38                alt_fd_list
 .data          0x000000000000ebb8        0x0 /home/codedwrench/Dropbox/school/nios/kbs_periode_4_fpga_game/playstationtest_bsp//libucosii_bsp.a(alt_dev_llist_insert.o)
 .data          0x000000000000ebb8        0x0 /home/codedwrench/Dropbox/school/nios/kbs_periode_4_fpga_game/playstationtest_bsp//libucosii_bsp.a(alt_do_ctors.o)
 .data          0x000000000000ebb8        0x0 /home/codedwrench/Dropbox/school/nios/kbs_periode_4_fpga_game/playstationtest_bsp//libucosii_bsp.a(alt_do_dtors.o)
 .data          0x000000000000ebb8        0x0 /home/codedwrench/Dropbox/school/nios/kbs_periode_4_fpga_game/playstationtest_bsp//libucosii_bsp.a(alt_errno.o)
 .data          0x000000000000ebb8        0x0 /home/codedwrench/Dropbox/school/nios/kbs_periode_4_fpga_game/playstationtest_bsp//libucosii_bsp.a(alt_find_dev.o)
 .data          0x000000000000ebb8        0x0 /home/codedwrench/Dropbox/school/nios/kbs_periode_4_fpga_game/playstationtest_bsp//libucosii_bsp.a(alt_icache_flush_all.o)
 .data          0x000000000000ebb8        0x0 /home/codedwrench/Dropbox/school/nios/kbs_periode_4_fpga_game/playstationtest_bsp//libucosii_bsp.a(alt_io_redirect.o)
 .data          0x000000000000ebb8        0x0 /home/codedwrench/Dropbox/school/nios/kbs_periode_4_fpga_game/playstationtest_bsp//libucosii_bsp.a(alt_irq_register.o)
 .data          0x000000000000ebb8        0x0 /home/codedwrench/Dropbox/school/nios/kbs_periode_4_fpga_game/playstationtest_bsp//libucosii_bsp.a(alt_irq_vars.o)
 .data          0x000000000000ebb8        0x0 /home/codedwrench/Dropbox/school/nios/kbs_periode_4_fpga_game/playstationtest_bsp//libucosii_bsp.a(alt_open.o)
 .data          0x000000000000ebb8        0x0 /home/codedwrench/Dropbox/school/nios/kbs_periode_4_fpga_game/playstationtest_bsp//libucosii_bsp.a(alt_release_fd.o)
 .data          0x000000000000ebb8        0x0 /home/codedwrench/Dropbox/school/nios/kbs_periode_4_fpga_game/playstationtest_bsp//libucosii_bsp.a(alt_tick.o)
 .data          0x000000000000ebb8        0x0 /home/codedwrench/Dropbox/school/nios/kbs_periode_4_fpga_game/playstationtest_bsp//libucosii_bsp.a(altera_nios2_gen2_irq.o)
 .data          0x000000000000ebb8        0x0 /home/codedwrench/Dropbox/school/nios/kbs_periode_4_fpga_game/playstationtest_bsp//libucosii_bsp.a(os_cpu_a.o)
 .data          0x000000000000ebb8        0x0 /home/codedwrench/Dropbox/school/nios/kbs_periode_4_fpga_game/playstationtest_bsp//libucosii_bsp.a(os_cpu_c.o)
 .data          0x000000000000ebb8        0x0 /home/codedwrench/Dropbox/school/nios/kbs_periode_4_fpga_game/playstationtest_bsp//libucosii_bsp.a(alt_find_file.o)
 .data          0x000000000000ebb8        0x0 /home/codedwrench/Dropbox/school/nios/kbs_periode_4_fpga_game/playstationtest_bsp//libucosii_bsp.a(alt_get_fd.o)
 .data          0x000000000000ebb8        0x0 /home/codedwrench/Dropbox/school/nios/kbs_periode_4_fpga_game/playstationtest_bsp//libucosii_bsp.a(alt_icache_flush.o)
 .data          0x000000000000ebb8        0x0 /home/codedwrench/Dropbox/school/nios/kbs_periode_4_fpga_game/playstationtest_bsp//libucosii_bsp.a(alt_irq_entry.o)
 .data          0x000000000000ebb8        0x0 /home/codedwrench/Dropbox/school/nios/kbs_periode_4_fpga_game/playstationtest_bsp//libucosii_bsp.a(alt_irq_handler.o)
 .data          0x000000000000ebb8        0x0 /home/codedwrench/Dropbox/school/nios/kbs_periode_4_fpga_game/playstationtest_bsp//libucosii_bsp.a(alt_exception_entry.o)
 .data          0x000000000000ebb8        0x0 /home/codedwrench/Dropbox/school/nios/kbs_periode_4_fpga_game/playstationtest_bsp//libucosii_bsp.a(alt_instruction_exception_entry.o)
 .data          0x000000000000ebb8        0x0 /mnt/ssddata/altera_lite/15.1/nios2eds/bin/gnu/H-x86_64-pc-linux-gnu/bin/../lib/gcc/nios2-elf/4.9.2/../../../../../H-x86_64-pc-linux-gnu/nios2-elf/lib/mhw-mulx/libc.a(lib_a-atexit.o)
 .data          0x000000000000ebb8        0x0 /mnt/ssddata/altera_lite/15.1/nios2eds/bin/gnu/H-x86_64-pc-linux-gnu/bin/../lib/gcc/nios2-elf/4.9.2/../../../../../H-x86_64-pc-linux-gnu/nios2-elf/lib/mhw-mulx/libc.a(lib_a-exit.o)
 .data          0x000000000000ebb8        0x0 /mnt/ssddata/altera_lite/15.1/nios2eds/bin/gnu/H-x86_64-pc-linux-gnu/bin/../lib/gcc/nios2-elf/4.9.2/../../../../../H-x86_64-pc-linux-gnu/nios2-elf/lib/mhw-mulx/libc.a(lib_a-impure.o)
 .data.impure_data
                0x000000000000ebb8      0x424 /mnt/ssddata/altera_lite/15.1/nios2eds/bin/gnu/H-x86_64-pc-linux-gnu/bin/../lib/gcc/nios2-elf/4.9.2/../../../../../H-x86_64-pc-linux-gnu/nios2-elf/lib/mhw-mulx/libc.a(lib_a-impure.o)
 .data          0x000000000000efdc        0x0 /mnt/ssddata/altera_lite/15.1/nios2eds/bin/gnu/H-x86_64-pc-linux-gnu/bin/../lib/gcc/nios2-elf/4.9.2/../../../../../H-x86_64-pc-linux-gnu/nios2-elf/lib/mhw-mulx/libc.a(lib_a-int_errno.o)
 .data          0x000000000000efdc        0x0 /mnt/ssddata/altera_lite/15.1/nios2eds/bin/gnu/H-x86_64-pc-linux-gnu/bin/../lib/gcc/nios2-elf/4.9.2/../../../../../H-x86_64-pc-linux-gnu/nios2-elf/lib/mhw-mulx/libc.a(lib_a-memcmp.o)
 .data          0x000000000000efdc        0x0 /mnt/ssddata/altera_lite/15.1/nios2eds/bin/gnu/H-x86_64-pc-linux-gnu/bin/../lib/gcc/nios2-elf/4.9.2/../../../../../H-x86_64-pc-linux-gnu/nios2-elf/lib/mhw-mulx/libc.a(lib_a-memcpy.o)
 .data          0x000000000000efdc        0x0 /mnt/ssddata/altera_lite/15.1/nios2eds/bin/gnu/H-x86_64-pc-linux-gnu/bin/../lib/gcc/nios2-elf/4.9.2/../../../../../H-x86_64-pc-linux-gnu/nios2-elf/lib/mhw-mulx/libc.a(lib_a-memset.o)
 .data          0x000000000000efdc        0x0 /mnt/ssddata/altera_lite/15.1/nios2eds/bin/gnu/H-x86_64-pc-linux-gnu/bin/../lib/gcc/nios2-elf/4.9.2/../../../../../H-x86_64-pc-linux-gnu/nios2-elf/lib/mhw-mulx/libc.a(lib_a-strcmp.o)
 .data          0x000000000000efdc        0x0 /mnt/ssddata/altera_lite/15.1/nios2eds/bin/gnu/H-x86_64-pc-linux-gnu/bin/../lib/gcc/nios2-elf/4.9.2/../../../../../H-x86_64-pc-linux-gnu/nios2-elf/lib/mhw-mulx/libc.a(lib_a-strlen.o)
 .data          0x000000000000efdc        0x0 /mnt/ssddata/altera_lite/15.1/nios2eds/bin/gnu/H-x86_64-pc-linux-gnu/bin/../lib/gcc/nios2-elf/4.9.2/../../../../../H-x86_64-pc-linux-gnu/nios2-elf/lib/mhw-mulx/libc.a(lib_a-__atexit.o)
 .data          0x000000000000efdc        0x0 /mnt/ssddata/altera_lite/15.1/nios2eds/bin/gnu/H-x86_64-pc-linux-gnu/bin/../lib/gcc/nios2-elf/4.9.2/../../../../../H-x86_64-pc-linux-gnu/nios2-elf/lib/mhw-mulx/libc.a(lib_a-__call_atexit.o)
 .data          0x000000000000efdc        0x0 /home/codedwrench/Dropbox/school/nios/kbs_periode_4_fpga_game/playstationtest_bsp//libucosii_bsp.a(alt_exit.o)
                0x0000000000016fdc                _gp = ABSOLUTE ((. + 0x8000))
                0x0000000000016fdc                PROVIDE (gp, _gp)
 *(.rwdata .rwdata.*)
 *(.sdata .sdata.* .gnu.linkonce.s.*)
 .sdata         0x000000000000efdc       0x10 obj/default/main.o
                0x000000000000efdc                pixel_buffer_start
                0x000000000000efe0                buffer_register
                0x000000000000efe4                dma_control
                0x000000000000efe8                character_buffer
 .sdata         0x000000000000efec        0x4 /home/codedwrench/Dropbox/school/nios/kbs_periode_4_fpga_game/playstationtest_bsp//libucosii_bsp.a(alt_env_lock.o)
 .sdata         0x000000000000eff0        0x4 /home/codedwrench/Dropbox/school/nios/kbs_periode_4_fpga_game/playstationtest_bsp//libucosii_bsp.a(alt_malloc_lock.o)
 .sdata         0x000000000000eff4       0x74 /home/codedwrench/Dropbox/school/nios/kbs_periode_4_fpga_game/playstationtest_bsp//libucosii_bsp.a(os_dbg.o)
                0x000000000000eff4                OSDebugEn
                0x000000000000eff8                OSEndiannessTest
                0x000000000000effc                OSEventEn
                0x000000000000effe                OSEventMax
                0x000000000000f000                OSEventNameSize
                0x000000000000f002                OSEventSize
                0x000000000000f004                OSEventTblSize
                0x000000000000f006                OSEventMultiEn
                0x000000000000f008                OSFlagEn
                0x000000000000f00a                OSFlagGrpSize
                0x000000000000f00c                OSFlagNodeSize
                0x000000000000f00e                OSFlagWidth
                0x000000000000f010                OSFlagMax
                0x000000000000f012                OSFlagNameSize
                0x000000000000f014                OSLowestPrio
                0x000000000000f016                OSMboxEn
                0x000000000000f018                OSMemEn
                0x000000000000f01a                OSMemMax
                0x000000000000f01c                OSMemNameSize
                0x000000000000f01e                OSMemSize
                0x000000000000f020                OSMemTblSize
                0x000000000000f022                OSMutexEn
                0x000000000000f024                OSPtrSize
                0x000000000000f026                OSQEn
                0x000000000000f028                OSQMax
                0x000000000000f02a                OSQSize
                0x000000000000f02c                OSRdyTblSize
                0x000000000000f02e                OSSemEn
                0x000000000000f030                OSStkWidth
                0x000000000000f032                OSTaskCreateEn
                0x000000000000f034                OSTaskCreateExtEn
                0x000000000000f036                OSTaskDelEn
                0x000000000000f038                OSTaskIdleStkSize
                0x000000000000f03a                OSTaskProfileEn
                0x000000000000f03c                OSTaskMax
                0x000000000000f03e                OSTaskNameSize
                0x000000000000f040                OSTaskStatEn
                0x000000000000f042                OSTaskStatStkSize
                0x000000000000f044                OSTaskStatStkChkEn
                0x000000000000f046                OSTaskSwHookEn
                0x000000000000f048                OSTCBPrioTblMax
                0x000000000000f04a                OSTCBSize
                0x000000000000f04c                OSTicksPerSec
                0x000000000000f04e                OSTimeTickHookEn
                0x000000000000f050                OSVersionNbr
                0x000000000000f052                OSTmrEn
                0x000000000000f054                OSTmrCfgMax
                0x000000000000f056                OSTmrCfgNameSize
                0x000000000000f058                OSTmrCfgWheelSize
                0x000000000000f05a                OSTmrCfgTicksPerSec
                0x000000000000f05c                OSTmrSize
                0x000000000000f05e                OSTmrTblSize
                0x000000000000f060                OSTmrWheelSize
                0x000000000000f062                OSTmrWheelTblSize
                0x000000000000f064                OSDataSize
 .sdata         0x000000000000f068       0x14 /home/codedwrench/Dropbox/school/nios/kbs_periode_4_fpga_game/playstationtest_bsp//libucosii_bsp.a(alt_dev.o)
                0x000000000000f068                alt_fs_list
                0x000000000000f070                alt_dev_list
                0x000000000000f078                alt_max_fd
 .sdata         0x000000000000f07c        0x4 /home/codedwrench/Dropbox/school/nios/kbs_periode_4_fpga_game/playstationtest_bsp//libucosii_bsp.a(alt_errno.o)
                0x000000000000f07c                alt_errno
 .sdata         0x000000000000f080        0x4 /home/codedwrench/Dropbox/school/nios/kbs_periode_4_fpga_game/playstationtest_bsp//libucosii_bsp.a(alt_irq_vars.o)
                0x000000000000f080                alt_priority_mask
 .sdata         0x000000000000f084        0x8 /home/codedwrench/Dropbox/school/nios/kbs_periode_4_fpga_game/playstationtest_bsp//libucosii_bsp.a(alt_tick.o)
                0x000000000000f084                alt_alarm_list
 .sdata._global_impure_ptr
                0x000000000000f08c        0x4 /mnt/ssddata/altera_lite/15.1/nios2eds/bin/gnu/H-x86_64-pc-linux-gnu/bin/../lib/gcc/nios2-elf/4.9.2/../../../../../H-x86_64-pc-linux-gnu/nios2-elf/lib/mhw-mulx/libc.a(lib_a-impure.o)
                0x000000000000f08c                _global_impure_ptr
 .sdata._impure_ptr
                0x000000000000f090        0x4 /mnt/ssddata/altera_lite/15.1/nios2eds/bin/gnu/H-x86_64-pc-linux-gnu/bin/../lib/gcc/nios2-elf/4.9.2/../../../../../H-x86_64-pc-linux-gnu/nios2-elf/lib/mhw-mulx/libc.a(lib_a-impure.o)
                0x000000000000f090                _impure_ptr
 *(.sdata2 .sdata2.* .gnu.linkonce.s2.*)
                0x000000000000f094                . = ALIGN (0x4)
                0x000000000000f094                _edata = ABSOLUTE (.)
                0x000000000000f094                PROVIDE (edata, ABSOLUTE (.))
                0x000000000000f094                PROVIDE (__ram_rwdata_end, ABSOLUTE (.))
                0x000000000000f094                PROVIDE (__flash_rwdata_start, LOADADDR (.rwdata))

.bss            0x0000000000010b08     0x73a8
                0x0000000000010b08                __bss_start = ABSOLUTE (.)
                0x0000000000010b08                PROVIDE (__sbss_start, ABSOLUTE (.))
                0x0000000000010b08                PROVIDE (___sbss_start, ABSOLUTE (.))
 *(.dynsbss)
 *(.sbss .sbss.* .gnu.linkonce.sb.*)
 .sbss          0x0000000000010b08        0xc /home/codedwrench/Dropbox/school/nios/kbs_periode_4_fpga_game/playstationtest_bsp//libucosii_bsp.a(alt_main.o)
                0x0000000000010b08                alt_argc
                0x0000000000010b0c                alt_argv
                0x0000000000010b10                alt_envp
 .sbss          0x0000000000010b14        0x4 /home/codedwrench/Dropbox/school/nios/kbs_periode_4_fpga_game/playstationtest_bsp//libucosii_bsp.a(alt_env_lock.o)
 .sbss          0x0000000000010b18        0x4 /home/codedwrench/Dropbox/school/nios/kbs_periode_4_fpga_game/playstationtest_bsp//libucosii_bsp.a(alt_env_lock.o)
                0x0000000000010b18                alt_envsem
 .sbss          0x0000000000010b1c        0x8 /home/codedwrench/Dropbox/school/nios/kbs_periode_4_fpga_game/playstationtest_bsp//libucosii_bsp.a(alt_malloc_lock.o)
                0x0000000000010b20                alt_heapsem
 .sbss          0x0000000000010b24       0x50 /home/codedwrench/Dropbox/school/nios/kbs_periode_4_fpga_game/playstationtest_bsp//libucosii_bsp.a(os_core.o)
                0x0000000000010b24                OSLockNesting
                0x0000000000010b25                OSRunning
                0x0000000000010b28                OSIdleCtr
                0x0000000000010b2c                OSPrioHighRdy
                0x0000000000010b2d                OSPrioCur
                0x0000000000010b30                OSTCBList
                0x0000000000010b34                OSTickStepState
                0x0000000000010b38                OSCtxSwCtr
                0x0000000000010b3c                OSIdleCtrMax
                0x0000000000010b40                OSTCBFreeList
                0x0000000000010b44                OSCPUUsage
                0x0000000000010b45                OSTaskCtr
                0x0000000000010b48                OSMemFreeList
                0x0000000000010b4c                OSTCBHighRdy
                0x0000000000010b50                OSQFreeList
                0x0000000000010b54                OSRdyGrp
                0x0000000000010b55                OSRdyTbl
                0x0000000000010b58                OSEventFreeList
                0x0000000000010b5c                OSIntNesting
                0x0000000000010b60                OSTCBCur
                0x0000000000010b64                OSTime
                0x0000000000010b68                OSFlagFreeList
                0x0000000000010b6c                OSStatRdy
                0x0000000000010b70                OSIdleCtrRun
 .sbss          0x0000000000010b74        0x4 /home/codedwrench/Dropbox/school/nios/kbs_periode_4_fpga_game/playstationtest_bsp//libucosii_bsp.a(alt_dev.o)
                0x0000000000010b74                alt_fd_list_lock
 .sbss          0x0000000000010b78        0x4 /home/codedwrench/Dropbox/school/nios/kbs_periode_4_fpga_game/playstationtest_bsp//libucosii_bsp.a(alt_irq_vars.o)
                0x0000000000010b78                alt_irq_active
 .sbss          0x0000000000010b7c        0x8 /home/codedwrench/Dropbox/school/nios/kbs_periode_4_fpga_game/playstationtest_bsp//libucosii_bsp.a(alt_tick.o)
                0x0000000000010b7c                _alt_tick_rate
                0x0000000000010b80                _alt_nticks
 .sbss          0x0000000000010b84        0x4 /home/codedwrench/Dropbox/school/nios/kbs_periode_4_fpga_game/playstationtest_bsp//libucosii_bsp.a(alt_instruction_exception_entry.o)
                0x0000000000010b84                alt_instruction_exception_handler
 .sbss          0x0000000000010b88        0x4 /mnt/ssddata/altera_lite/15.1/nios2eds/bin/gnu/H-x86_64-pc-linux-gnu/bin/../lib/gcc/nios2-elf/4.9.2/../../../../../H-x86_64-pc-linux-gnu/nios2-elf/lib/mhw-mulx/libc.a(lib_a-int_errno.o)
                0x0000000000010b88                errno
 *(.sbss2 .sbss2.* .gnu.linkonce.sb2.*)
 *(.scommon)
                0x0000000000010b8c                PROVIDE (__sbss_end, ABSOLUTE (.))
                0x0000000000010b8c                PROVIDE (___sbss_end, ABSOLUTE (.))
 *(.dynbss)
 *(.bss .bss.* .gnu.linkonce.b.*)
 .bss           0x0000000000010b8c        0x0 /home/codedwrench/Dropbox/school/nios/kbs_periode_4_fpga_game/playstationtest_bsp//obj/HAL/src/crt0.o
 .bss           0x0000000000010b8c        0x0 obj/default/graphicslib.o
 .bss           0x0000000000010b8c        0x0 obj/default/main.o
 .bss           0x0000000000010b8c        0x0 /home/codedwrench/Dropbox/school/nios/kbs_periode_4_fpga_game/playstationtest_bsp//libucosii_bsp.a(alt_load.o)
 .bss           0x0000000000010b8c        0x0 /home/codedwrench/Dropbox/school/nios/kbs_periode_4_fpga_game/playstationtest_bsp//libucosii_bsp.a(alt_main.o)
 .bss           0x0000000000010b8c        0x0 /home/codedwrench/Dropbox/school/nios/kbs_periode_4_fpga_game/playstationtest_bsp//libucosii_bsp.a(alt_env_lock.o)
 .bss           0x0000000000010b8c        0x0 /home/codedwrench/Dropbox/school/nios/kbs_periode_4_fpga_game/playstationtest_bsp//libucosii_bsp.a(alt_malloc_lock.o)
 .bss           0x0000000000010b8c        0x0 /home/codedwrench/Dropbox/school/nios/kbs_periode_4_fpga_game/playstationtest_bsp//libucosii_bsp.a(os_core.o)
 .bss           0x0000000000010b8c        0x0 /home/codedwrench/Dropbox/school/nios/kbs_periode_4_fpga_game/playstationtest_bsp//libucosii_bsp.a(os_dbg.o)
 .bss           0x0000000000010b8c        0x0 /home/codedwrench/Dropbox/school/nios/kbs_periode_4_fpga_game/playstationtest_bsp//libucosii_bsp.a(os_flag.o)
 .bss           0x0000000000010b8c        0x0 /home/codedwrench/Dropbox/school/nios/kbs_periode_4_fpga_game/playstationtest_bsp//libucosii_bsp.a(os_mem.o)
 .bss           0x0000000000010b8c        0x0 /home/codedwrench/Dropbox/school/nios/kbs_periode_4_fpga_game/playstationtest_bsp//libucosii_bsp.a(os_q.o)
 .bss           0x0000000000010b8c        0x0 /home/codedwrench/Dropbox/school/nios/kbs_periode_4_fpga_game/playstationtest_bsp//libucosii_bsp.a(os_sem.o)
 .bss           0x0000000000010b8c        0x0 /home/codedwrench/Dropbox/school/nios/kbs_periode_4_fpga_game/playstationtest_bsp//libucosii_bsp.a(os_task.o)
 .bss           0x0000000000010b8c        0x0 /home/codedwrench/Dropbox/school/nios/kbs_periode_4_fpga_game/playstationtest_bsp//libucosii_bsp.a(os_time.o)
 .bss           0x0000000000010b8c        0x0 /home/codedwrench/Dropbox/school/nios/kbs_periode_4_fpga_game/playstationtest_bsp//libucosii_bsp.a(alt_sys_init.o)
 .bss           0x0000000000010b8c        0x0 /home/codedwrench/Dropbox/school/nios/kbs_periode_4_fpga_game/playstationtest_bsp//libucosii_bsp.a(altera_avalon_jtag_uart_fd.o)
 .bss           0x0000000000010b8c        0x0 /home/codedwrench/Dropbox/school/nios/kbs_periode_4_fpga_game/playstationtest_bsp//libucosii_bsp.a(altera_avalon_jtag_uart_init.o)
 .bss           0x0000000000010b8c        0x0 /home/codedwrench/Dropbox/school/nios/kbs_periode_4_fpga_game/playstationtest_bsp//libucosii_bsp.a(altera_avalon_jtag_uart_ioctl.o)
 .bss           0x0000000000010b8c        0x0 /home/codedwrench/Dropbox/school/nios/kbs_periode_4_fpga_game/playstationtest_bsp//libucosii_bsp.a(altera_avalon_jtag_uart_read.o)
 .bss           0x0000000000010b8c        0x0 /home/codedwrench/Dropbox/school/nios/kbs_periode_4_fpga_game/playstationtest_bsp//libucosii_bsp.a(altera_avalon_jtag_uart_write.o)
 .bss           0x0000000000010b8c        0x0 /home/codedwrench/Dropbox/school/nios/kbs_periode_4_fpga_game/playstationtest_bsp//libucosii_bsp.a(altera_avalon_timer_sc.o)
 .bss           0x0000000000010b8c        0x0 /home/codedwrench/Dropbox/school/nios/kbs_periode_4_fpga_game/playstationtest_bsp//libucosii_bsp.a(altera_up_avalon_character_lcd.o)
 .bss           0x0000000000010b8c        0x0 /home/codedwrench/Dropbox/school/nios/kbs_periode_4_fpga_game/playstationtest_bsp//libucosii_bsp.a(altera_up_avalon_irda.o)
 .bss           0x0000000000010b8c        0x0 /home/codedwrench/Dropbox/school/nios/kbs_periode_4_fpga_game/playstationtest_bsp//libucosii_bsp.a(altera_up_avalon_ps2.o)
 .bss           0x0000000000010b8c        0x0 /home/codedwrench/Dropbox/school/nios/kbs_periode_4_fpga_game/playstationtest_bsp//libucosii_bsp.a(altera_up_avalon_rs232.o)
 .bss           0x0000000000010b8c        0x0 /home/codedwrench/Dropbox/school/nios/kbs_periode_4_fpga_game/playstationtest_bsp//libucosii_bsp.a(altera_up_avalon_video_character_buffer_with_dma.o)
 .bss           0x0000000000010b8c        0x0 /home/codedwrench/Dropbox/school/nios/kbs_periode_4_fpga_game/playstationtest_bsp//libucosii_bsp.a(alt_alarm_start.o)
 .bss           0x0000000000010b8c        0x0 /home/codedwrench/Dropbox/school/nios/kbs_periode_4_fpga_game/playstationtest_bsp//libucosii_bsp.a(alt_close.o)
 .bss           0x0000000000010b8c        0x0 /home/codedwrench/Dropbox/school/nios/kbs_periode_4_fpga_game/playstationtest_bsp//libucosii_bsp.a(alt_dcache_flush_all.o)
 .bss           0x0000000000010b8c        0x0 /home/codedwrench/Dropbox/school/nios/kbs_periode_4_fpga_game/playstationtest_bsp//libucosii_bsp.a(alt_dev.o)
 .bss           0x0000000000010b8c        0x0 /home/codedwrench/Dropbox/school/nios/kbs_periode_4_fpga_game/playstationtest_bsp//libucosii_bsp.a(alt_dev_llist_insert.o)
 .bss           0x0000000000010b8c        0x0 /home/codedwrench/Dropbox/school/nios/kbs_periode_4_fpga_game/playstationtest_bsp//libucosii_bsp.a(alt_do_ctors.o)
 .bss           0x0000000000010b8c        0x0 /home/codedwrench/Dropbox/school/nios/kbs_periode_4_fpga_game/playstationtest_bsp//libucosii_bsp.a(alt_do_dtors.o)
 .bss           0x0000000000010b8c        0x0 /home/codedwrench/Dropbox/school/nios/kbs_periode_4_fpga_game/playstationtest_bsp//libucosii_bsp.a(alt_errno.o)
 .bss           0x0000000000010b8c        0x0 /home/codedwrench/Dropbox/school/nios/kbs_periode_4_fpga_game/playstationtest_bsp//libucosii_bsp.a(alt_find_dev.o)
 .bss           0x0000000000010b8c        0x0 /home/codedwrench/Dropbox/school/nios/kbs_periode_4_fpga_game/playstationtest_bsp//libucosii_bsp.a(alt_icache_flush_all.o)
 .bss           0x0000000000010b8c        0x0 /home/codedwrench/Dropbox/school/nios/kbs_periode_4_fpga_game/playstationtest_bsp//libucosii_bsp.a(alt_io_redirect.o)
 .bss           0x0000000000010b8c        0x0 /home/codedwrench/Dropbox/school/nios/kbs_periode_4_fpga_game/playstationtest_bsp//libucosii_bsp.a(alt_irq_register.o)
 .bss           0x0000000000010b8c        0x0 /home/codedwrench/Dropbox/school/nios/kbs_periode_4_fpga_game/playstationtest_bsp//libucosii_bsp.a(alt_irq_vars.o)
 .bss           0x0000000000010b8c        0x0 /home/codedwrench/Dropbox/school/nios/kbs_periode_4_fpga_game/playstationtest_bsp//libucosii_bsp.a(alt_open.o)
 .bss           0x0000000000010b8c        0x0 /home/codedwrench/Dropbox/school/nios/kbs_periode_4_fpga_game/playstationtest_bsp//libucosii_bsp.a(alt_release_fd.o)
 .bss           0x0000000000010b8c        0x0 /home/codedwrench/Dropbox/school/nios/kbs_periode_4_fpga_game/playstationtest_bsp//libucosii_bsp.a(alt_tick.o)
 .bss           0x0000000000010b8c        0x0 /home/codedwrench/Dropbox/school/nios/kbs_periode_4_fpga_game/playstationtest_bsp//libucosii_bsp.a(altera_nios2_gen2_irq.o)
 .bss           0x0000000000010b8c        0x0 /home/codedwrench/Dropbox/school/nios/kbs_periode_4_fpga_game/playstationtest_bsp//libucosii_bsp.a(os_cpu_a.o)
 .bss           0x0000000000010b8c        0x0 /home/codedwrench/Dropbox/school/nios/kbs_periode_4_fpga_game/playstationtest_bsp//libucosii_bsp.a(os_cpu_c.o)
 .bss           0x0000000000010b8c        0x0 /home/codedwrench/Dropbox/school/nios/kbs_periode_4_fpga_game/playstationtest_bsp//libucosii_bsp.a(alt_find_file.o)
 .bss           0x0000000000010b8c        0x0 /home/codedwrench/Dropbox/school/nios/kbs_periode_4_fpga_game/playstationtest_bsp//libucosii_bsp.a(alt_get_fd.o)
 .bss           0x0000000000010b8c        0x0 /home/codedwrench/Dropbox/school/nios/kbs_periode_4_fpga_game/playstationtest_bsp//libucosii_bsp.a(alt_icache_flush.o)
 .bss           0x0000000000010b8c        0x0 /home/codedwrench/Dropbox/school/nios/kbs_periode_4_fpga_game/playstationtest_bsp//libucosii_bsp.a(alt_irq_entry.o)
 .bss           0x0000000000010b8c        0x0 /home/codedwrench/Dropbox/school/nios/kbs_periode_4_fpga_game/playstationtest_bsp//libucosii_bsp.a(alt_irq_handler.o)
 .bss           0x0000000000010b8c        0x0 /home/codedwrench/Dropbox/school/nios/kbs_periode_4_fpga_game/playstationtest_bsp//libucosii_bsp.a(alt_exception_entry.o)
 .bss           0x0000000000010b8c        0x0 /home/codedwrench/Dropbox/school/nios/kbs_periode_4_fpga_game/playstationtest_bsp//libucosii_bsp.a(alt_instruction_exception_entry.o)
 .bss           0x0000000000010b8c        0x0 /mnt/ssddata/altera_lite/15.1/nios2eds/bin/gnu/H-x86_64-pc-linux-gnu/bin/../lib/gcc/nios2-elf/4.9.2/../../../../../H-x86_64-pc-linux-gnu/nios2-elf/lib/mhw-mulx/libc.a(lib_a-atexit.o)
 .bss           0x0000000000010b8c        0x0 /mnt/ssddata/altera_lite/15.1/nios2eds/bin/gnu/H-x86_64-pc-linux-gnu/bin/../lib/gcc/nios2-elf/4.9.2/../../../../../H-x86_64-pc-linux-gnu/nios2-elf/lib/mhw-mulx/libc.a(lib_a-exit.o)
 .bss           0x0000000000010b8c        0x0 /mnt/ssddata/altera_lite/15.1/nios2eds/bin/gnu/H-x86_64-pc-linux-gnu/bin/../lib/gcc/nios2-elf/4.9.2/../../../../../H-x86_64-pc-linux-gnu/nios2-elf/lib/mhw-mulx/libc.a(lib_a-impure.o)
 .bss           0x0000000000010b8c        0x0 /mnt/ssddata/altera_lite/15.1/nios2eds/bin/gnu/H-x86_64-pc-linux-gnu/bin/../lib/gcc/nios2-elf/4.9.2/../../../../../H-x86_64-pc-linux-gnu/nios2-elf/lib/mhw-mulx/libc.a(lib_a-int_errno.o)
 .bss           0x0000000000010b8c        0x0 /mnt/ssddata/altera_lite/15.1/nios2eds/bin/gnu/H-x86_64-pc-linux-gnu/bin/../lib/gcc/nios2-elf/4.9.2/../../../../../H-x86_64-pc-linux-gnu/nios2-elf/lib/mhw-mulx/libc.a(lib_a-memcmp.o)
 .bss           0x0000000000010b8c        0x0 /mnt/ssddata/altera_lite/15.1/nios2eds/bin/gnu/H-x86_64-pc-linux-gnu/bin/../lib/gcc/nios2-elf/4.9.2/../../../../../H-x86_64-pc-linux-gnu/nios2-elf/lib/mhw-mulx/libc.a(lib_a-memcpy.o)
 .bss           0x0000000000010b8c        0x0 /mnt/ssddata/altera_lite/15.1/nios2eds/bin/gnu/H-x86_64-pc-linux-gnu/bin/../lib/gcc/nios2-elf/4.9.2/../../../../../H-x86_64-pc-linux-gnu/nios2-elf/lib/mhw-mulx/libc.a(lib_a-memset.o)
 .bss           0x0000000000010b8c        0x0 /mnt/ssddata/altera_lite/15.1/nios2eds/bin/gnu/H-x86_64-pc-linux-gnu/bin/../lib/gcc/nios2-elf/4.9.2/../../../../../H-x86_64-pc-linux-gnu/nios2-elf/lib/mhw-mulx/libc.a(lib_a-strcmp.o)
 .bss           0x0000000000010b8c        0x0 /mnt/ssddata/altera_lite/15.1/nios2eds/bin/gnu/H-x86_64-pc-linux-gnu/bin/../lib/gcc/nios2-elf/4.9.2/../../../../../H-x86_64-pc-linux-gnu/nios2-elf/lib/mhw-mulx/libc.a(lib_a-strlen.o)
 .bss           0x0000000000010b8c        0x0 /mnt/ssddata/altera_lite/15.1/nios2eds/bin/gnu/H-x86_64-pc-linux-gnu/bin/../lib/gcc/nios2-elf/4.9.2/../../../../../H-x86_64-pc-linux-gnu/nios2-elf/lib/mhw-mulx/libc.a(lib_a-__atexit.o)
 .bss           0x0000000000010b8c        0x0 /mnt/ssddata/altera_lite/15.1/nios2eds/bin/gnu/H-x86_64-pc-linux-gnu/bin/../lib/gcc/nios2-elf/4.9.2/../../../../../H-x86_64-pc-linux-gnu/nios2-elf/lib/mhw-mulx/libc.a(lib_a-__call_atexit.o)
 .bss           0x0000000000010b8c        0x0 /home/codedwrench/Dropbox/school/nios/kbs_periode_4_fpga_game/playstationtest_bsp//libucosii_bsp.a(alt_exit.o)
 *(COMMON)
 COMMON         0x0000000000010b8c     0x4000 obj/default/main.o
                0x0000000000010b8c                task1_stk
                0x0000000000012b8c                task2_stk
 COMMON         0x0000000000014b8c     0x3224 /home/codedwrench/Dropbox/school/nios/kbs_periode_4_fpga_game/playstationtest_bsp//libucosii_bsp.a(os_core.o)
                0x0000000000014b8c                OSFlagTbl
                0x0000000000014efc                OSMemTbl
                0x0000000000015b2c                OSTaskStatStk
                0x000000000001632c                OSQTbl
                0x000000000001650c                OSTaskIdleStk
                0x0000000000016d0c                OSEventTbl
                0x000000000001784c                OSTCBTbl
                0x0000000000017d5c                OSTCBPrioTbl
 COMMON         0x0000000000017db0      0x100 /home/codedwrench/Dropbox/school/nios/kbs_periode_4_fpga_game/playstationtest_bsp//libucosii_bsp.a(alt_irq_handler.o)
                0x0000000000017db0                alt_irq
                0x0000000000017eb0                . = ALIGN (0x4)
                0x0000000000017eb0                __bss_end = ABSOLUTE (.)

.SDRAM          0x0000000000017eb0        0x0
                0x0000000000017eb0                PROVIDE (_alt_partition_SDRAM_start, ABSOLUTE (.))
 *(.SDRAM .SDRAM. SDRAM.*)
                0x0000000000017eb0                . = ALIGN (0x4)
                0x0000000000017eb0                PROVIDE (_alt_partition_SDRAM_end, ABSOLUTE (.))
                0x0000000000017eb0                _end = ABSOLUTE (.)
                0x0000000000017eb0                end = ABSOLUTE (.)
                0x0000000000017eb0                __alt_stack_base = ABSOLUTE (.)
                0x0000000000017eb0                PROVIDE (_alt_partition_SDRAM_load_addr, LOADADDR (.SDRAM))

.Flash_flash_data
                0x000000000c000000        0x0 load address 0x0000000000017eb0
                0x000000000c000000                PROVIDE (_alt_partition_Flash_flash_data_start, ABSOLUTE (.))
 *(.Flash_flash_data .Flash_flash_data. Flash_flash_data.*)
                0x000000000c000000                . = ALIGN (0x4)
                0x000000000c000000                PROVIDE (_alt_partition_Flash_flash_data_end, ABSOLUTE (.))
                0x0000000000017eb0                PROVIDE (_alt_partition_Flash_flash_data_load_addr, LOADADDR (.Flash_flash_data))

.stab
 *(.stab)

.stabstr
 *(.stabstr)

.stab.excl
 *(.stab.excl)

.stab.exclstr
 *(.stab.exclstr)

.stab.index
 *(.stab.index)

.stab.indexstr
 *(.stab.indexstr)

.comment        0x0000000000000000       0x23
 *(.comment)
 .comment       0x0000000000000000       0x23 obj/default/graphicslib.o
                                         0x24 (size before relaxing)
 .comment       0x0000000000000000       0x24 obj/default/main.o
 .comment       0x0000000000000000       0x24 /home/codedwrench/Dropbox/school/nios/kbs_periode_4_fpga_game/playstationtest_bsp//libucosii_bsp.a(alt_load.o)
 .comment       0x0000000000000000       0x24 /home/codedwrench/Dropbox/school/nios/kbs_periode_4_fpga_game/playstationtest_bsp//libucosii_bsp.a(alt_main.o)
 .comment       0x0000000000000000       0x24 /home/codedwrench/Dropbox/school/nios/kbs_periode_4_fpga_game/playstationtest_bsp//libucosii_bsp.a(alt_env_lock.o)
 .comment       0x0000000000000000       0x24 /home/codedwrench/Dropbox/school/nios/kbs_periode_4_fpga_game/playstationtest_bsp//libucosii_bsp.a(alt_malloc_lock.o)
 .comment       0x0000000000000000       0x24 /home/codedwrench/Dropbox/school/nios/kbs_periode_4_fpga_game/playstationtest_bsp//libucosii_bsp.a(os_core.o)
 .comment       0x0000000000000000       0x24 /home/codedwrench/Dropbox/school/nios/kbs_periode_4_fpga_game/playstationtest_bsp//libucosii_bsp.a(os_dbg.o)
 .comment       0x0000000000000000       0x24 /home/codedwrench/Dropbox/school/nios/kbs_periode_4_fpga_game/playstationtest_bsp//libucosii_bsp.a(os_flag.o)
 .comment       0x0000000000000000       0x24 /home/codedwrench/Dropbox/school/nios/kbs_periode_4_fpga_game/playstationtest_bsp//libucosii_bsp.a(os_mem.o)
 .comment       0x0000000000000000       0x24 /home/codedwrench/Dropbox/school/nios/kbs_periode_4_fpga_game/playstationtest_bsp//libucosii_bsp.a(os_q.o)
 .comment       0x0000000000000000       0x24 /home/codedwrench/Dropbox/school/nios/kbs_periode_4_fpga_game/playstationtest_bsp//libucosii_bsp.a(os_sem.o)
 .comment       0x0000000000000000       0x24 /home/codedwrench/Dropbox/school/nios/kbs_periode_4_fpga_game/playstationtest_bsp//libucosii_bsp.a(os_task.o)
 .comment       0x0000000000000000       0x24 /home/codedwrench/Dropbox/school/nios/kbs_periode_4_fpga_game/playstationtest_bsp//libucosii_bsp.a(os_time.o)
 .comment       0x0000000000000000       0x24 /home/codedwrench/Dropbox/school/nios/kbs_periode_4_fpga_game/playstationtest_bsp//libucosii_bsp.a(alt_sys_init.o)
 .comment       0x0000000000000000       0x24 /home/codedwrench/Dropbox/school/nios/kbs_periode_4_fpga_game/playstationtest_bsp//libucosii_bsp.a(altera_avalon_jtag_uart_fd.o)
 .comment       0x0000000000000000       0x24 /home/codedwrench/Dropbox/school/nios/kbs_periode_4_fpga_game/playstationtest_bsp//libucosii_bsp.a(altera_avalon_jtag_uart_init.o)
 .comment       0x0000000000000000       0x24 /home/codedwrench/Dropbox/school/nios/kbs_periode_4_fpga_game/playstationtest_bsp//libucosii_bsp.a(altera_avalon_jtag_uart_ioctl.o)
 .comment       0x0000000000000000       0x24 /home/codedwrench/Dropbox/school/nios/kbs_periode_4_fpga_game/playstationtest_bsp//libucosii_bsp.a(altera_avalon_jtag_uart_read.o)
 .comment       0x0000000000000000       0x24 /home/codedwrench/Dropbox/school/nios/kbs_periode_4_fpga_game/playstationtest_bsp//libucosii_bsp.a(altera_avalon_jtag_uart_write.o)
 .comment       0x0000000000000000       0x24 /home/codedwrench/Dropbox/school/nios/kbs_periode_4_fpga_game/playstationtest_bsp//libucosii_bsp.a(altera_avalon_timer_sc.o)
 .comment       0x0000000000000000       0x24 /home/codedwrench/Dropbox/school/nios/kbs_periode_4_fpga_game/playstationtest_bsp//libucosii_bsp.a(altera_up_avalon_character_lcd.o)
 .comment       0x0000000000000000       0x24 /home/codedwrench/Dropbox/school/nios/kbs_periode_4_fpga_game/playstationtest_bsp//libucosii_bsp.a(altera_up_avalon_irda.o)
 .comment       0x0000000000000000       0x24 /home/codedwrench/Dropbox/school/nios/kbs_periode_4_fpga_game/playstationtest_bsp//libucosii_bsp.a(altera_up_avalon_ps2.o)
 .comment       0x0000000000000000       0x24 /home/codedwrench/Dropbox/school/nios/kbs_periode_4_fpga_game/playstationtest_bsp//libucosii_bsp.a(altera_up_avalon_rs232.o)
 .comment       0x0000000000000000       0x24 /home/codedwrench/Dropbox/school/nios/kbs_periode_4_fpga_game/playstationtest_bsp//libucosii_bsp.a(altera_up_avalon_video_character_buffer_with_dma.o)
 .comment       0x0000000000000000       0x24 /home/codedwrench/Dropbox/school/nios/kbs_periode_4_fpga_game/playstationtest_bsp//libucosii_bsp.a(alt_alarm_start.o)
 .comment       0x0000000000000000       0x24 /home/codedwrench/Dropbox/school/nios/kbs_periode_4_fpga_game/playstationtest_bsp//libucosii_bsp.a(alt_close.o)
 .comment       0x0000000000000000       0x24 /home/codedwrench/Dropbox/school/nios/kbs_periode_4_fpga_game/playstationtest_bsp//libucosii_bsp.a(alt_dcache_flush_all.o)
 .comment       0x0000000000000000       0x24 /home/codedwrench/Dropbox/school/nios/kbs_periode_4_fpga_game/playstationtest_bsp//libucosii_bsp.a(alt_dev.o)
 .comment       0x0000000000000000       0x24 /home/codedwrench/Dropbox/school/nios/kbs_periode_4_fpga_game/playstationtest_bsp//libucosii_bsp.a(alt_dev_llist_insert.o)
 .comment       0x0000000000000000       0x24 /home/codedwrench/Dropbox/school/nios/kbs_periode_4_fpga_game/playstationtest_bsp//libucosii_bsp.a(alt_do_ctors.o)
 .comment       0x0000000000000000       0x24 /home/codedwrench/Dropbox/school/nios/kbs_periode_4_fpga_game/playstationtest_bsp//libucosii_bsp.a(alt_do_dtors.o)
 .comment       0x0000000000000000       0x24 /home/codedwrench/Dropbox/school/nios/kbs_periode_4_fpga_game/playstationtest_bsp//libucosii_bsp.a(alt_errno.o)
 .comment       0x0000000000000000       0x24 /home/codedwrench/Dropbox/school/nios/kbs_periode_4_fpga_game/playstationtest_bsp//libucosii_bsp.a(alt_find_dev.o)
 .comment       0x0000000000000000       0x24 /home/codedwrench/Dropbox/school/nios/kbs_periode_4_fpga_game/playstationtest_bsp//libucosii_bsp.a(alt_icache_flush_all.o)
 .comment       0x0000000000000000       0x24 /home/codedwrench/Dropbox/school/nios/kbs_periode_4_fpga_game/playstationtest_bsp//libucosii_bsp.a(alt_io_redirect.o)
 .comment       0x0000000000000000       0x24 /home/codedwrench/Dropbox/school/nios/kbs_periode_4_fpga_game/playstationtest_bsp//libucosii_bsp.a(alt_irq_register.o)
 .comment       0x0000000000000000       0x24 /home/codedwrench/Dropbox/school/nios/kbs_periode_4_fpga_game/playstationtest_bsp//libucosii_bsp.a(alt_irq_vars.o)
 .comment       0x0000000000000000       0x24 /home/codedwrench/Dropbox/school/nios/kbs_periode_4_fpga_game/playstationtest_bsp//libucosii_bsp.a(alt_open.o)
 .comment       0x0000000000000000       0x24 /home/codedwrench/Dropbox/school/nios/kbs_periode_4_fpga_game/playstationtest_bsp//libucosii_bsp.a(alt_release_fd.o)
 .comment       0x0000000000000000       0x24 /home/codedwrench/Dropbox/school/nios/kbs_periode_4_fpga_game/playstationtest_bsp//libucosii_bsp.a(alt_tick.o)
 .comment       0x0000000000000000       0x24 /home/codedwrench/Dropbox/school/nios/kbs_periode_4_fpga_game/playstationtest_bsp//libucosii_bsp.a(altera_nios2_gen2_irq.o)
 .comment       0x0000000000000000       0x24 /home/codedwrench/Dropbox/school/nios/kbs_periode_4_fpga_game/playstationtest_bsp//libucosii_bsp.a(os_cpu_c.o)
 .comment       0x0000000000000000       0x24 /home/codedwrench/Dropbox/school/nios/kbs_periode_4_fpga_game/playstationtest_bsp//libucosii_bsp.a(alt_find_file.o)
 .comment       0x0000000000000000       0x24 /home/codedwrench/Dropbox/school/nios/kbs_periode_4_fpga_game/playstationtest_bsp//libucosii_bsp.a(alt_get_fd.o)
 .comment       0x0000000000000000       0x24 /home/codedwrench/Dropbox/school/nios/kbs_periode_4_fpga_game/playstationtest_bsp//libucosii_bsp.a(alt_icache_flush.o)
 .comment       0x0000000000000000       0x24 /home/codedwrench/Dropbox/school/nios/kbs_periode_4_fpga_game/playstationtest_bsp//libucosii_bsp.a(alt_irq_handler.o)
 .comment       0x0000000000000000       0x24 /home/codedwrench/Dropbox/school/nios/kbs_periode_4_fpga_game/playstationtest_bsp//libucosii_bsp.a(alt_instruction_exception_entry.o)
 .comment       0x0000000000000000       0x24 /mnt/ssddata/altera_lite/15.1/nios2eds/bin/gnu/H-x86_64-pc-linux-gnu/bin/../lib/gcc/nios2-elf/4.9.2/../../../../../H-x86_64-pc-linux-gnu/nios2-elf/lib/mhw-mulx/libc.a(lib_a-atexit.o)
 .comment       0x0000000000000000       0x24 /mnt/ssddata/altera_lite/15.1/nios2eds/bin/gnu/H-x86_64-pc-linux-gnu/bin/../lib/gcc/nios2-elf/4.9.2/../../../../../H-x86_64-pc-linux-gnu/nios2-elf/lib/mhw-mulx/libc.a(lib_a-exit.o)
 .comment       0x0000000000000000       0x24 /mnt/ssddata/altera_lite/15.1/nios2eds/bin/gnu/H-x86_64-pc-linux-gnu/bin/../lib/gcc/nios2-elf/4.9.2/../../../../../H-x86_64-pc-linux-gnu/nios2-elf/lib/mhw-mulx/libc.a(lib_a-impure.o)
 .comment       0x0000000000000000       0x24 /mnt/ssddata/altera_lite/15.1/nios2eds/bin/gnu/H-x86_64-pc-linux-gnu/bin/../lib/gcc/nios2-elf/4.9.2/../../../../../H-x86_64-pc-linux-gnu/nios2-elf/lib/mhw-mulx/libc.a(lib_a-int_errno.o)
 .comment       0x0000000000000000       0x24 /mnt/ssddata/altera_lite/15.1/nios2eds/bin/gnu/H-x86_64-pc-linux-gnu/bin/../lib/gcc/nios2-elf/4.9.2/../../../../../H-x86_64-pc-linux-gnu/nios2-elf/lib/mhw-mulx/libc.a(lib_a-memcmp.o)
 .comment       0x0000000000000000       0x24 /mnt/ssddata/altera_lite/15.1/nios2eds/bin/gnu/H-x86_64-pc-linux-gnu/bin/../lib/gcc/nios2-elf/4.9.2/../../../../../H-x86_64-pc-linux-gnu/nios2-elf/lib/mhw-mulx/libc.a(lib_a-memcpy.o)
 .comment       0x0000000000000000       0x24 /mnt/ssddata/altera_lite/15.1/nios2eds/bin/gnu/H-x86_64-pc-linux-gnu/bin/../lib/gcc/nios2-elf/4.9.2/../../../../../H-x86_64-pc-linux-gnu/nios2-elf/lib/mhw-mulx/libc.a(lib_a-memset.o)
 .comment       0x0000000000000000       0x24 /mnt/ssddata/altera_lite/15.1/nios2eds/bin/gnu/H-x86_64-pc-linux-gnu/bin/../lib/gcc/nios2-elf/4.9.2/../../../../../H-x86_64-pc-linux-gnu/nios2-elf/lib/mhw-mulx/libc.a(lib_a-strcmp.o)
 .comment       0x0000000000000000       0x24 /mnt/ssddata/altera_lite/15.1/nios2eds/bin/gnu/H-x86_64-pc-linux-gnu/bin/../lib/gcc/nios2-elf/4.9.2/../../../../../H-x86_64-pc-linux-gnu/nios2-elf/lib/mhw-mulx/libc.a(lib_a-strlen.o)
 .comment       0x0000000000000000       0x24 /mnt/ssddata/altera_lite/15.1/nios2eds/bin/gnu/H-x86_64-pc-linux-gnu/bin/../lib/gcc/nios2-elf/4.9.2/../../../../../H-x86_64-pc-linux-gnu/nios2-elf/lib/mhw-mulx/libc.a(lib_a-__atexit.o)
 .comment       0x0000000000000000       0x24 /mnt/ssddata/altera_lite/15.1/nios2eds/bin/gnu/H-x86_64-pc-linux-gnu/bin/../lib/gcc/nios2-elf/4.9.2/../../../../../H-x86_64-pc-linux-gnu/nios2-elf/lib/mhw-mulx/libc.a(lib_a-__call_atexit.o)
 .comment       0x0000000000000000       0x24 /home/codedwrench/Dropbox/school/nios/kbs_periode_4_fpga_game/playstationtest_bsp//libucosii_bsp.a(alt_exit.o)

.debug
 *(.debug)

.line
 *(.line)

.debug_srcinfo
 *(.debug_srcinfo)

.debug_sfnames
 *(.debug_sfnames)

.debug_aranges  0x0000000000000000      0x838
 *(.debug_aranges)
 .debug_aranges
                0x0000000000000000       0x28 /home/codedwrench/Dropbox/school/nios/kbs_periode_4_fpga_game/playstationtest_bsp//obj/HAL/src/crt0.o
 .debug_aranges
                0x0000000000000028       0x20 obj/default/graphicslib.o
 .debug_aranges
                0x0000000000000048       0x20 obj/default/main.o
 .debug_aranges
                0x0000000000000068       0x20 /home/codedwrench/Dropbox/school/nios/kbs_periode_4_fpga_game/playstationtest_bsp//libucosii_bsp.a(alt_load.o)
 .debug_aranges
                0x0000000000000088       0x20 /home/codedwrench/Dropbox/school/nios/kbs_periode_4_fpga_game/playstationtest_bsp//libucosii_bsp.a(alt_main.o)
 .debug_aranges
                0x00000000000000a8       0x20 /home/codedwrench/Dropbox/school/nios/kbs_periode_4_fpga_game/playstationtest_bsp//libucosii_bsp.a(alt_env_lock.o)
 .debug_aranges
                0x00000000000000c8       0x20 /home/codedwrench/Dropbox/school/nios/kbs_periode_4_fpga_game/playstationtest_bsp//libucosii_bsp.a(alt_malloc_lock.o)
 .debug_aranges
                0x00000000000000e8       0x20 /home/codedwrench/Dropbox/school/nios/kbs_periode_4_fpga_game/playstationtest_bsp//libucosii_bsp.a(os_core.o)
 .debug_aranges
                0x0000000000000108       0x20 /home/codedwrench/Dropbox/school/nios/kbs_periode_4_fpga_game/playstationtest_bsp//libucosii_bsp.a(os_dbg.o)
 .debug_aranges
                0x0000000000000128       0x20 /home/codedwrench/Dropbox/school/nios/kbs_periode_4_fpga_game/playstationtest_bsp//libucosii_bsp.a(os_flag.o)
 .debug_aranges
                0x0000000000000148       0x20 /home/codedwrench/Dropbox/school/nios/kbs_periode_4_fpga_game/playstationtest_bsp//libucosii_bsp.a(os_mem.o)
 .debug_aranges
                0x0000000000000168       0x20 /home/codedwrench/Dropbox/school/nios/kbs_periode_4_fpga_game/playstationtest_bsp//libucosii_bsp.a(os_q.o)
 .debug_aranges
                0x0000000000000188       0x20 /home/codedwrench/Dropbox/school/nios/kbs_periode_4_fpga_game/playstationtest_bsp//libucosii_bsp.a(os_sem.o)
 .debug_aranges
                0x00000000000001a8       0x20 /home/codedwrench/Dropbox/school/nios/kbs_periode_4_fpga_game/playstationtest_bsp//libucosii_bsp.a(os_task.o)
 .debug_aranges
                0x00000000000001c8       0x20 /home/codedwrench/Dropbox/school/nios/kbs_periode_4_fpga_game/playstationtest_bsp//libucosii_bsp.a(os_time.o)
 .debug_aranges
                0x00000000000001e8       0x20 /home/codedwrench/Dropbox/school/nios/kbs_periode_4_fpga_game/playstationtest_bsp//libucosii_bsp.a(alt_sys_init.o)
 .debug_aranges
                0x0000000000000208       0x20 /home/codedwrench/Dropbox/school/nios/kbs_periode_4_fpga_game/playstationtest_bsp//libucosii_bsp.a(altera_avalon_jtag_uart_fd.o)
 .debug_aranges
                0x0000000000000228       0x20 /home/codedwrench/Dropbox/school/nios/kbs_periode_4_fpga_game/playstationtest_bsp//libucosii_bsp.a(altera_avalon_jtag_uart_init.o)
 .debug_aranges
                0x0000000000000248       0x20 /home/codedwrench/Dropbox/school/nios/kbs_periode_4_fpga_game/playstationtest_bsp//libucosii_bsp.a(altera_avalon_jtag_uart_ioctl.o)
 .debug_aranges
                0x0000000000000268       0x20 /home/codedwrench/Dropbox/school/nios/kbs_periode_4_fpga_game/playstationtest_bsp//libucosii_bsp.a(altera_avalon_jtag_uart_read.o)
 .debug_aranges
                0x0000000000000288       0x20 /home/codedwrench/Dropbox/school/nios/kbs_periode_4_fpga_game/playstationtest_bsp//libucosii_bsp.a(altera_avalon_jtag_uart_write.o)
 .debug_aranges
                0x00000000000002a8       0x20 /home/codedwrench/Dropbox/school/nios/kbs_periode_4_fpga_game/playstationtest_bsp//libucosii_bsp.a(altera_avalon_timer_sc.o)
 .debug_aranges
                0x00000000000002c8       0x20 /home/codedwrench/Dropbox/school/nios/kbs_periode_4_fpga_game/playstationtest_bsp//libucosii_bsp.a(altera_up_avalon_character_lcd.o)
 .debug_aranges
                0x00000000000002e8       0x20 /home/codedwrench/Dropbox/school/nios/kbs_periode_4_fpga_game/playstationtest_bsp//libucosii_bsp.a(altera_up_avalon_irda.o)
 .debug_aranges
                0x0000000000000308       0x20 /home/codedwrench/Dropbox/school/nios/kbs_periode_4_fpga_game/playstationtest_bsp//libucosii_bsp.a(altera_up_avalon_ps2.o)
 .debug_aranges
                0x0000000000000328       0x20 /home/codedwrench/Dropbox/school/nios/kbs_periode_4_fpga_game/playstationtest_bsp//libucosii_bsp.a(altera_up_avalon_rs232.o)
 .debug_aranges
                0x0000000000000348       0x20 /home/codedwrench/Dropbox/school/nios/kbs_periode_4_fpga_game/playstationtest_bsp//libucosii_bsp.a(altera_up_avalon_video_character_buffer_with_dma.o)
 .debug_aranges
                0x0000000000000368       0x20 /home/codedwrench/Dropbox/school/nios/kbs_periode_4_fpga_game/playstationtest_bsp//libucosii_bsp.a(alt_alarm_start.o)
 .debug_aranges
                0x0000000000000388       0x20 /home/codedwrench/Dropbox/school/nios/kbs_periode_4_fpga_game/playstationtest_bsp//libucosii_bsp.a(alt_close.o)
 .debug_aranges
                0x00000000000003a8       0x20 /home/codedwrench/Dropbox/school/nios/kbs_periode_4_fpga_game/playstationtest_bsp//libucosii_bsp.a(alt_dcache_flush_all.o)
 .debug_aranges
                0x00000000000003c8       0x20 /home/codedwrench/Dropbox/school/nios/kbs_periode_4_fpga_game/playstationtest_bsp//libucosii_bsp.a(alt_dev.o)
 .debug_aranges
                0x00000000000003e8       0x20 /home/codedwrench/Dropbox/school/nios/kbs_periode_4_fpga_game/playstationtest_bsp//libucosii_bsp.a(alt_dev_llist_insert.o)
 .debug_aranges
                0x0000000000000408       0x20 /home/codedwrench/Dropbox/school/nios/kbs_periode_4_fpga_game/playstationtest_bsp//libucosii_bsp.a(alt_do_ctors.o)
 .debug_aranges
                0x0000000000000428       0x20 /home/codedwrench/Dropbox/school/nios/kbs_periode_4_fpga_game/playstationtest_bsp//libucosii_bsp.a(alt_do_dtors.o)
 .debug_aranges
                0x0000000000000448       0x18 /home/codedwrench/Dropbox/school/nios/kbs_periode_4_fpga_game/playstationtest_bsp//libucosii_bsp.a(alt_errno.o)
 .debug_aranges
                0x0000000000000460       0x20 /home/codedwrench/Dropbox/school/nios/kbs_periode_4_fpga_game/playstationtest_bsp//libucosii_bsp.a(alt_find_dev.o)
 .debug_aranges
                0x0000000000000480       0x20 /home/codedwrench/Dropbox/school/nios/kbs_periode_4_fpga_game/playstationtest_bsp//libucosii_bsp.a(alt_icache_flush_all.o)
 .debug_aranges
                0x00000000000004a0       0x20 /home/codedwrench/Dropbox/school/nios/kbs_periode_4_fpga_game/playstationtest_bsp//libucosii_bsp.a(alt_io_redirect.o)
 .debug_aranges
                0x00000000000004c0       0x20 /home/codedwrench/Dropbox/school/nios/kbs_periode_4_fpga_game/playstationtest_bsp//libucosii_bsp.a(alt_irq_register.o)
 .debug_aranges
                0x00000000000004e0       0x18 /home/codedwrench/Dropbox/school/nios/kbs_periode_4_fpga_game/playstationtest_bsp//libucosii_bsp.a(alt_irq_vars.o)
 .debug_aranges
                0x00000000000004f8       0x20 /home/codedwrench/Dropbox/school/nios/kbs_periode_4_fpga_game/playstationtest_bsp//libucosii_bsp.a(alt_open.o)
 .debug_aranges
                0x0000000000000518       0x20 /home/codedwrench/Dropbox/school/nios/kbs_periode_4_fpga_game/playstationtest_bsp//libucosii_bsp.a(alt_release_fd.o)
 .debug_aranges
                0x0000000000000538       0x20 /home/codedwrench/Dropbox/school/nios/kbs_periode_4_fpga_game/playstationtest_bsp//libucosii_bsp.a(alt_tick.o)
 .debug_aranges
                0x0000000000000558       0x20 /home/codedwrench/Dropbox/school/nios/kbs_periode_4_fpga_game/playstationtest_bsp//libucosii_bsp.a(altera_nios2_gen2_irq.o)
 .debug_aranges
                0x0000000000000578       0x20 /home/codedwrench/Dropbox/school/nios/kbs_periode_4_fpga_game/playstationtest_bsp//libucosii_bsp.a(os_cpu_a.o)
 .debug_aranges
                0x0000000000000598       0x20 /home/codedwrench/Dropbox/school/nios/kbs_periode_4_fpga_game/playstationtest_bsp//libucosii_bsp.a(os_cpu_c.o)
 .debug_aranges
                0x00000000000005b8       0x20 /home/codedwrench/Dropbox/school/nios/kbs_periode_4_fpga_game/playstationtest_bsp//libucosii_bsp.a(alt_find_file.o)
 .debug_aranges
                0x00000000000005d8       0x20 /home/codedwrench/Dropbox/school/nios/kbs_periode_4_fpga_game/playstationtest_bsp//libucosii_bsp.a(alt_get_fd.o)
 .debug_aranges
                0x00000000000005f8       0x20 /home/codedwrench/Dropbox/school/nios/kbs_periode_4_fpga_game/playstationtest_bsp//libucosii_bsp.a(alt_icache_flush.o)
 .debug_aranges
                0x0000000000000618       0x30 /home/codedwrench/Dropbox/school/nios/kbs_periode_4_fpga_game/playstationtest_bsp//libucosii_bsp.a(alt_irq_entry.o)
 .debug_aranges
                0x0000000000000648       0x20 /home/codedwrench/Dropbox/school/nios/kbs_periode_4_fpga_game/playstationtest_bsp//libucosii_bsp.a(alt_irq_handler.o)
 .debug_aranges
                0x0000000000000668       0x38 /home/codedwrench/Dropbox/school/nios/kbs_periode_4_fpga_game/playstationtest_bsp//libucosii_bsp.a(alt_exception_entry.o)
 .debug_aranges
                0x00000000000006a0       0x28 /home/codedwrench/Dropbox/school/nios/kbs_periode_4_fpga_game/playstationtest_bsp//libucosii_bsp.a(alt_instruction_exception_entry.o)
 .debug_aranges
                0x00000000000006c8       0x20 /mnt/ssddata/altera_lite/15.1/nios2eds/bin/gnu/H-x86_64-pc-linux-gnu/bin/../lib/gcc/nios2-elf/4.9.2/../../../../../H-x86_64-pc-linux-gnu/nios2-elf/lib/mhw-mulx/libc.a(lib_a-atexit.o)
 .debug_aranges
                0x00000000000006e8       0x20 /mnt/ssddata/altera_lite/15.1/nios2eds/bin/gnu/H-x86_64-pc-linux-gnu/bin/../lib/gcc/nios2-elf/4.9.2/../../../../../H-x86_64-pc-linux-gnu/nios2-elf/lib/mhw-mulx/libc.a(lib_a-exit.o)
 .debug_aranges
                0x0000000000000708       0x18 /mnt/ssddata/altera_lite/15.1/nios2eds/bin/gnu/H-x86_64-pc-linux-gnu/bin/../lib/gcc/nios2-elf/4.9.2/../../../../../H-x86_64-pc-linux-gnu/nios2-elf/lib/mhw-mulx/libc.a(lib_a-impure.o)
 .debug_aranges
                0x0000000000000720       0x18 /mnt/ssddata/altera_lite/15.1/nios2eds/bin/gnu/H-x86_64-pc-linux-gnu/bin/../lib/gcc/nios2-elf/4.9.2/../../../../../H-x86_64-pc-linux-gnu/nios2-elf/lib/mhw-mulx/libc.a(lib_a-int_errno.o)
 .debug_aranges
                0x0000000000000738       0x20 /mnt/ssddata/altera_lite/15.1/nios2eds/bin/gnu/H-x86_64-pc-linux-gnu/bin/../lib/gcc/nios2-elf/4.9.2/../../../../../H-x86_64-pc-linux-gnu/nios2-elf/lib/mhw-mulx/libc.a(lib_a-memcmp.o)
 .debug_aranges
                0x0000000000000758       0x20 /mnt/ssddata/altera_lite/15.1/nios2eds/bin/gnu/H-x86_64-pc-linux-gnu/bin/../lib/gcc/nios2-elf/4.9.2/../../../../../H-x86_64-pc-linux-gnu/nios2-elf/lib/mhw-mulx/libc.a(lib_a-memcpy.o)
 .debug_aranges
                0x0000000000000778       0x20 /mnt/ssddata/altera_lite/15.1/nios2eds/bin/gnu/H-x86_64-pc-linux-gnu/bin/../lib/gcc/nios2-elf/4.9.2/../../../../../H-x86_64-pc-linux-gnu/nios2-elf/lib/mhw-mulx/libc.a(lib_a-memset.o)
 .debug_aranges
                0x0000000000000798       0x20 /mnt/ssddata/altera_lite/15.1/nios2eds/bin/gnu/H-x86_64-pc-linux-gnu/bin/../lib/gcc/nios2-elf/4.9.2/../../../../../H-x86_64-pc-linux-gnu/nios2-elf/lib/mhw-mulx/libc.a(lib_a-strcmp.o)
 .debug_aranges
                0x00000000000007b8       0x20 /mnt/ssddata/altera_lite/15.1/nios2eds/bin/gnu/H-x86_64-pc-linux-gnu/bin/../lib/gcc/nios2-elf/4.9.2/../../../../../H-x86_64-pc-linux-gnu/nios2-elf/lib/mhw-mulx/libc.a(lib_a-strlen.o)
 .debug_aranges
                0x00000000000007d8       0x20 /mnt/ssddata/altera_lite/15.1/nios2eds/bin/gnu/H-x86_64-pc-linux-gnu/bin/../lib/gcc/nios2-elf/4.9.2/../../../../../H-x86_64-pc-linux-gnu/nios2-elf/lib/mhw-mulx/libc.a(lib_a-__atexit.o)
 .debug_aranges
                0x00000000000007f8       0x20 /mnt/ssddata/altera_lite/15.1/nios2eds/bin/gnu/H-x86_64-pc-linux-gnu/bin/../lib/gcc/nios2-elf/4.9.2/../../../../../H-x86_64-pc-linux-gnu/nios2-elf/lib/mhw-mulx/libc.a(lib_a-__call_atexit.o)
 .debug_aranges
                0x0000000000000818       0x20 /home/codedwrench/Dropbox/school/nios/kbs_periode_4_fpga_game/playstationtest_bsp//libucosii_bsp.a(alt_exit.o)

.debug_pubnames
 *(.debug_pubnames)

.debug_info     0x0000000000000000    0x14016
 *(.debug_info .gnu.linkonce.wi.*)
 .debug_info    0x0000000000000000       0x86 /home/codedwrench/Dropbox/school/nios/kbs_periode_4_fpga_game/playstationtest_bsp//obj/HAL/src/crt0.o
 .debug_info    0x0000000000000086      0x3ca obj/default/graphicslib.o
 .debug_info    0x0000000000000450      0x1f6 obj/default/main.o
 .debug_info    0x0000000000000646      0x13e /home/codedwrench/Dropbox/school/nios/kbs_periode_4_fpga_game/playstationtest_bsp//libucosii_bsp.a(alt_load.o)
 .debug_info    0x0000000000000784      0x27c /home/codedwrench/Dropbox/school/nios/kbs_periode_4_fpga_game/playstationtest_bsp//libucosii_bsp.a(alt_main.o)
 .debug_info    0x0000000000000a00      0xc76 /home/codedwrench/Dropbox/school/nios/kbs_periode_4_fpga_game/playstationtest_bsp//libucosii_bsp.a(alt_env_lock.o)
 .debug_info    0x0000000000001676      0xdbc /home/codedwrench/Dropbox/school/nios/kbs_periode_4_fpga_game/playstationtest_bsp//libucosii_bsp.a(alt_malloc_lock.o)
 .debug_info    0x0000000000002432     0x161c /home/codedwrench/Dropbox/school/nios/kbs_periode_4_fpga_game/playstationtest_bsp//libucosii_bsp.a(os_core.o)
 .debug_info    0x0000000000003a4e      0xab7 /home/codedwrench/Dropbox/school/nios/kbs_periode_4_fpga_game/playstationtest_bsp//libucosii_bsp.a(os_dbg.o)
 .debug_info    0x0000000000004505      0xfab /home/codedwrench/Dropbox/school/nios/kbs_periode_4_fpga_game/playstationtest_bsp//libucosii_bsp.a(os_flag.o)
 .debug_info    0x00000000000054b0      0x689 /home/codedwrench/Dropbox/school/nios/kbs_periode_4_fpga_game/playstationtest_bsp//libucosii_bsp.a(os_mem.o)
 .debug_info    0x0000000000005b39      0xdb2 /home/codedwrench/Dropbox/school/nios/kbs_periode_4_fpga_game/playstationtest_bsp//libucosii_bsp.a(os_q.o)
 .debug_info    0x00000000000068eb      0xa13 /home/codedwrench/Dropbox/school/nios/kbs_periode_4_fpga_game/playstationtest_bsp//libucosii_bsp.a(os_sem.o)
 .debug_info    0x00000000000072fe     0x1126 /home/codedwrench/Dropbox/school/nios/kbs_periode_4_fpga_game/playstationtest_bsp//libucosii_bsp.a(os_task.o)
 .debug_info    0x0000000000008424      0x6f8 /home/codedwrench/Dropbox/school/nios/kbs_periode_4_fpga_game/playstationtest_bsp//libucosii_bsp.a(os_time.o)
 .debug_info    0x0000000000008b1c      0xb2c /home/codedwrench/Dropbox/school/nios/kbs_periode_4_fpga_game/playstationtest_bsp//libucosii_bsp.a(alt_sys_init.o)
 .debug_info    0x0000000000009648      0x68a /home/codedwrench/Dropbox/school/nios/kbs_periode_4_fpga_game/playstationtest_bsp//libucosii_bsp.a(altera_avalon_jtag_uart_fd.o)
 .debug_info    0x0000000000009cd2      0x6d7 /home/codedwrench/Dropbox/school/nios/kbs_periode_4_fpga_game/playstationtest_bsp//libucosii_bsp.a(altera_avalon_jtag_uart_init.o)
 .debug_info    0x000000000000a3a9      0x3dc /home/codedwrench/Dropbox/school/nios/kbs_periode_4_fpga_game/playstationtest_bsp//libucosii_bsp.a(altera_avalon_jtag_uart_ioctl.o)
 .debug_info    0x000000000000a785      0x58e /home/codedwrench/Dropbox/school/nios/kbs_periode_4_fpga_game/playstationtest_bsp//libucosii_bsp.a(altera_avalon_jtag_uart_read.o)
 .debug_info    0x000000000000ad13      0x588 /home/codedwrench/Dropbox/school/nios/kbs_periode_4_fpga_game/playstationtest_bsp//libucosii_bsp.a(altera_avalon_jtag_uart_write.o)
 .debug_info    0x000000000000b29b      0x242 /home/codedwrench/Dropbox/school/nios/kbs_periode_4_fpga_game/playstationtest_bsp//libucosii_bsp.a(altera_avalon_timer_sc.o)
 .debug_info    0x000000000000b4dd      0x61e /home/codedwrench/Dropbox/school/nios/kbs_periode_4_fpga_game/playstationtest_bsp//libucosii_bsp.a(altera_up_avalon_character_lcd.o)
 .debug_info    0x000000000000bafb      0x5a0 /home/codedwrench/Dropbox/school/nios/kbs_periode_4_fpga_game/playstationtest_bsp//libucosii_bsp.a(altera_up_avalon_irda.o)
 .debug_info    0x000000000000c09b      0x808 /home/codedwrench/Dropbox/school/nios/kbs_periode_4_fpga_game/playstationtest_bsp//libucosii_bsp.a(altera_up_avalon_ps2.o)
 .debug_info    0x000000000000c8a3      0x5a0 /home/codedwrench/Dropbox/school/nios/kbs_periode_4_fpga_game/playstationtest_bsp//libucosii_bsp.a(altera_up_avalon_rs232.o)
 .debug_info    0x000000000000ce43      0x4a0 /home/codedwrench/Dropbox/school/nios/kbs_periode_4_fpga_game/playstationtest_bsp//libucosii_bsp.a(altera_up_avalon_video_character_buffer_with_dma.o)
 .debug_info    0x000000000000d2e3      0x2db /home/codedwrench/Dropbox/school/nios/kbs_periode_4_fpga_game/playstationtest_bsp//libucosii_bsp.a(alt_alarm_start.o)
 .debug_info    0x000000000000d5be      0x364 /home/codedwrench/Dropbox/school/nios/kbs_periode_4_fpga_game/playstationtest_bsp//libucosii_bsp.a(alt_close.o)
 .debug_info    0x000000000000d922       0x8b /home/codedwrench/Dropbox/school/nios/kbs_periode_4_fpga_game/playstationtest_bsp//libucosii_bsp.a(alt_dcache_flush_all.o)
 .debug_info    0x000000000000d9ad      0x594 /home/codedwrench/Dropbox/school/nios/kbs_periode_4_fpga_game/playstationtest_bsp//libucosii_bsp.a(alt_dev.o)
 .debug_info    0x000000000000df41      0x1a2 /home/codedwrench/Dropbox/school/nios/kbs_periode_4_fpga_game/playstationtest_bsp//libucosii_bsp.a(alt_dev_llist_insert.o)
 .debug_info    0x000000000000e0e3       0x83 /home/codedwrench/Dropbox/school/nios/kbs_periode_4_fpga_game/playstationtest_bsp//libucosii_bsp.a(alt_do_ctors.o)
 .debug_info    0x000000000000e166       0x83 /home/codedwrench/Dropbox/school/nios/kbs_periode_4_fpga_game/playstationtest_bsp//libucosii_bsp.a(alt_do_dtors.o)
 .debug_info    0x000000000000e1e9       0x9f /home/codedwrench/Dropbox/school/nios/kbs_periode_4_fpga_game/playstationtest_bsp//libucosii_bsp.a(alt_errno.o)
 .debug_info    0x000000000000e288      0x32c /home/codedwrench/Dropbox/school/nios/kbs_periode_4_fpga_game/playstationtest_bsp//libucosii_bsp.a(alt_find_dev.o)
 .debug_info    0x000000000000e5b4       0x8b /home/codedwrench/Dropbox/school/nios/kbs_periode_4_fpga_game/playstationtest_bsp//libucosii_bsp.a(alt_icache_flush_all.o)
 .debug_info    0x000000000000e63f      0x4e8 /home/codedwrench/Dropbox/school/nios/kbs_periode_4_fpga_game/playstationtest_bsp//libucosii_bsp.a(alt_io_redirect.o)
 .debug_info    0x000000000000eb27      0x346 /home/codedwrench/Dropbox/school/nios/kbs_periode_4_fpga_game/playstationtest_bsp//libucosii_bsp.a(alt_irq_register.o)
 .debug_info    0x000000000000ee6d       0x88 /home/codedwrench/Dropbox/school/nios/kbs_periode_4_fpga_game/playstationtest_bsp//libucosii_bsp.a(alt_irq_vars.o)
 .debug_info    0x000000000000eef5      0x3f3 /home/codedwrench/Dropbox/school/nios/kbs_periode_4_fpga_game/playstationtest_bsp//libucosii_bsp.a(alt_open.o)
 .debug_info    0x000000000000f2e8      0x308 /home/codedwrench/Dropbox/school/nios/kbs_periode_4_fpga_game/playstationtest_bsp//libucosii_bsp.a(alt_release_fd.o)
 .debug_info    0x000000000000f5f0      0x2b6 /home/codedwrench/Dropbox/school/nios/kbs_periode_4_fpga_game/playstationtest_bsp//libucosii_bsp.a(alt_tick.o)
 .debug_info    0x000000000000f8a6       0xb1 /home/codedwrench/Dropbox/school/nios/kbs_periode_4_fpga_game/playstationtest_bsp//libucosii_bsp.a(altera_nios2_gen2_irq.o)
 .debug_info    0x000000000000f957       0x8e /home/codedwrench/Dropbox/school/nios/kbs_periode_4_fpga_game/playstationtest_bsp//libucosii_bsp.a(os_cpu_a.o)
 .debug_info    0x000000000000f9e5      0xcf9 /home/codedwrench/Dropbox/school/nios/kbs_periode_4_fpga_game/playstationtest_bsp//libucosii_bsp.a(os_cpu_c.o)
 .debug_info    0x00000000000106de      0x329 /home/codedwrench/Dropbox/school/nios/kbs_periode_4_fpga_game/playstationtest_bsp//libucosii_bsp.a(alt_find_file.o)
 .debug_info    0x0000000000010a07      0x45a /home/codedwrench/Dropbox/school/nios/kbs_periode_4_fpga_game/playstationtest_bsp//libucosii_bsp.a(alt_get_fd.o)
 .debug_info    0x0000000000010e61       0xd5 /home/codedwrench/Dropbox/school/nios/kbs_periode_4_fpga_game/playstationtest_bsp//libucosii_bsp.a(alt_icache_flush.o)
 .debug_info    0x0000000000010f36       0x8f /home/codedwrench/Dropbox/school/nios/kbs_periode_4_fpga_game/playstationtest_bsp//libucosii_bsp.a(alt_irq_entry.o)
 .debug_info    0x0000000000010fc5      0x1c4 /home/codedwrench/Dropbox/school/nios/kbs_periode_4_fpga_game/playstationtest_bsp//libucosii_bsp.a(alt_irq_handler.o)
 .debug_info    0x0000000000011189       0x95 /home/codedwrench/Dropbox/school/nios/kbs_periode_4_fpga_game/playstationtest_bsp//libucosii_bsp.a(alt_exception_entry.o)
 .debug_info    0x000000000001121e      0x1d8 /home/codedwrench/Dropbox/school/nios/kbs_periode_4_fpga_game/playstationtest_bsp//libucosii_bsp.a(alt_instruction_exception_entry.o)
 .debug_info    0x00000000000113f6      0x10a /mnt/ssddata/altera_lite/15.1/nios2eds/bin/gnu/H-x86_64-pc-linux-gnu/bin/../lib/gcc/nios2-elf/4.9.2/../../../../../H-x86_64-pc-linux-gnu/nios2-elf/lib/mhw-mulx/libc.a(lib_a-atexit.o)
 .debug_info    0x0000000000011500      0x8ef /mnt/ssddata/altera_lite/15.1/nios2eds/bin/gnu/H-x86_64-pc-linux-gnu/bin/../lib/gcc/nios2-elf/4.9.2/../../../../../H-x86_64-pc-linux-gnu/nios2-elf/lib/mhw-mulx/libc.a(lib_a-exit.o)
 .debug_info    0x0000000000011def      0x89f /mnt/ssddata/altera_lite/15.1/nios2eds/bin/gnu/H-x86_64-pc-linux-gnu/bin/../lib/gcc/nios2-elf/4.9.2/../../../../../H-x86_64-pc-linux-gnu/nios2-elf/lib/mhw-mulx/libc.a(lib_a-impure.o)
 .debug_info    0x000000000001268e       0x83 /mnt/ssddata/altera_lite/15.1/nios2eds/bin/gnu/H-x86_64-pc-linux-gnu/bin/../lib/gcc/nios2-elf/4.9.2/../../../../../H-x86_64-pc-linux-gnu/nios2-elf/lib/mhw-mulx/libc.a(lib_a-int_errno.o)
 .debug_info    0x0000000000012711      0x113 /mnt/ssddata/altera_lite/15.1/nios2eds/bin/gnu/H-x86_64-pc-linux-gnu/bin/../lib/gcc/nios2-elf/4.9.2/../../../../../H-x86_64-pc-linux-gnu/nios2-elf/lib/mhw-mulx/libc.a(lib_a-memcmp.o)
 .debug_info    0x0000000000012824      0x133 /mnt/ssddata/altera_lite/15.1/nios2eds/bin/gnu/H-x86_64-pc-linux-gnu/bin/../lib/gcc/nios2-elf/4.9.2/../../../../../H-x86_64-pc-linux-gnu/nios2-elf/lib/mhw-mulx/libc.a(lib_a-memcpy.o)
 .debug_info    0x0000000000012957      0x11a /mnt/ssddata/altera_lite/15.1/nios2eds/bin/gnu/H-x86_64-pc-linux-gnu/bin/../lib/gcc/nios2-elf/4.9.2/../../../../../H-x86_64-pc-linux-gnu/nios2-elf/lib/mhw-mulx/libc.a(lib_a-memset.o)
 .debug_info    0x0000000000012a71       0xdd /mnt/ssddata/altera_lite/15.1/nios2eds/bin/gnu/H-x86_64-pc-linux-gnu/bin/../lib/gcc/nios2-elf/4.9.2/../../../../../H-x86_64-pc-linux-gnu/nios2-elf/lib/mhw-mulx/libc.a(lib_a-strcmp.o)
 .debug_info    0x0000000000012b4e       0xdb /mnt/ssddata/altera_lite/15.1/nios2eds/bin/gnu/H-x86_64-pc-linux-gnu/bin/../lib/gcc/nios2-elf/4.9.2/../../../../../H-x86_64-pc-linux-gnu/nios2-elf/lib/mhw-mulx/libc.a(lib_a-strlen.o)
 .debug_info    0x0000000000012c29      0x93f /mnt/ssddata/altera_lite/15.1/nios2eds/bin/gnu/H-x86_64-pc-linux-gnu/bin/../lib/gcc/nios2-elf/4.9.2/../../../../../H-x86_64-pc-linux-gnu/nios2-elf/lib/mhw-mulx/libc.a(lib_a-__atexit.o)
 .debug_info    0x0000000000013568      0x964 /mnt/ssddata/altera_lite/15.1/nios2eds/bin/gnu/H-x86_64-pc-linux-gnu/bin/../lib/gcc/nios2-elf/4.9.2/../../../../../H-x86_64-pc-linux-gnu/nios2-elf/lib/mhw-mulx/libc.a(lib_a-__call_atexit.o)
 .debug_info    0x0000000000013ecc      0x14a /home/codedwrench/Dropbox/school/nios/kbs_periode_4_fpga_game/playstationtest_bsp//libucosii_bsp.a(alt_exit.o)

.debug_abbrev   0x0000000000000000     0x4e75
 *(.debug_abbrev)
 .debug_abbrev  0x0000000000000000       0x12 /home/codedwrench/Dropbox/school/nios/kbs_periode_4_fpga_game/playstationtest_bsp//obj/HAL/src/crt0.o
 .debug_abbrev  0x0000000000000012       0xb7 obj/default/graphicslib.o
 .debug_abbrev  0x00000000000000c9       0xe5 obj/default/main.o
 .debug_abbrev  0x00000000000001ae       0x9f /home/codedwrench/Dropbox/school/nios/kbs_periode_4_fpga_game/playstationtest_bsp//libucosii_bsp.a(alt_load.o)
 .debug_abbrev  0x000000000000024d      0x139 /home/codedwrench/Dropbox/school/nios/kbs_periode_4_fpga_game/playstationtest_bsp//libucosii_bsp.a(alt_main.o)
 .debug_abbrev  0x0000000000000386      0x1e3 /home/codedwrench/Dropbox/school/nios/kbs_periode_4_fpga_game/playstationtest_bsp//libucosii_bsp.a(alt_env_lock.o)
 .debug_abbrev  0x0000000000000569      0x26d /home/codedwrench/Dropbox/school/nios/kbs_periode_4_fpga_game/playstationtest_bsp//libucosii_bsp.a(alt_malloc_lock.o)
 .debug_abbrev  0x00000000000007d6      0x302 /home/codedwrench/Dropbox/school/nios/kbs_periode_4_fpga_game/playstationtest_bsp//libucosii_bsp.a(os_core.o)
 .debug_abbrev  0x0000000000000ad8       0xf7 /home/codedwrench/Dropbox/school/nios/kbs_periode_4_fpga_game/playstationtest_bsp//libucosii_bsp.a(os_dbg.o)
 .debug_abbrev  0x0000000000000bcf      0x25a /home/codedwrench/Dropbox/school/nios/kbs_periode_4_fpga_game/playstationtest_bsp//libucosii_bsp.a(os_flag.o)
 .debug_abbrev  0x0000000000000e29      0x228 /home/codedwrench/Dropbox/school/nios/kbs_periode_4_fpga_game/playstationtest_bsp//libucosii_bsp.a(os_mem.o)
 .debug_abbrev  0x0000000000001051      0x248 /home/codedwrench/Dropbox/school/nios/kbs_periode_4_fpga_game/playstationtest_bsp//libucosii_bsp.a(os_q.o)
 .debug_abbrev  0x0000000000001299      0x262 /home/codedwrench/Dropbox/school/nios/kbs_periode_4_fpga_game/playstationtest_bsp//libucosii_bsp.a(os_sem.o)
 .debug_abbrev  0x00000000000014fb      0x247 /home/codedwrench/Dropbox/school/nios/kbs_periode_4_fpga_game/playstationtest_bsp//libucosii_bsp.a(os_task.o)
 .debug_abbrev  0x0000000000001742      0x20c /home/codedwrench/Dropbox/school/nios/kbs_periode_4_fpga_game/playstationtest_bsp//libucosii_bsp.a(os_time.o)
 .debug_abbrev  0x000000000000194e      0x1e2 /home/codedwrench/Dropbox/school/nios/kbs_periode_4_fpga_game/playstationtest_bsp//libucosii_bsp.a(alt_sys_init.o)
 .debug_abbrev  0x0000000000001b30      0x16c /home/codedwrench/Dropbox/school/nios/kbs_periode_4_fpga_game/playstationtest_bsp//libucosii_bsp.a(altera_avalon_jtag_uart_fd.o)
 .debug_abbrev  0x0000000000001c9c      0x248 /home/codedwrench/Dropbox/school/nios/kbs_periode_4_fpga_game/playstationtest_bsp//libucosii_bsp.a(altera_avalon_jtag_uart_init.o)
 .debug_abbrev  0x0000000000001ee4      0x156 /home/codedwrench/Dropbox/school/nios/kbs_periode_4_fpga_game/playstationtest_bsp//libucosii_bsp.a(altera_avalon_jtag_uart_ioctl.o)
 .debug_abbrev  0x000000000000203a      0x1fa /home/codedwrench/Dropbox/school/nios/kbs_periode_4_fpga_game/playstationtest_bsp//libucosii_bsp.a(altera_avalon_jtag_uart_read.o)
 .debug_abbrev  0x0000000000002234      0x1f6 /home/codedwrench/Dropbox/school/nios/kbs_periode_4_fpga_game/playstationtest_bsp//libucosii_bsp.a(altera_avalon_jtag_uart_write.o)
 .debug_abbrev  0x000000000000242a      0x155 /home/codedwrench/Dropbox/school/nios/kbs_periode_4_fpga_game/playstationtest_bsp//libucosii_bsp.a(altera_avalon_timer_sc.o)
 .debug_abbrev  0x000000000000257f      0x156 /home/codedwrench/Dropbox/school/nios/kbs_periode_4_fpga_game/playstationtest_bsp//libucosii_bsp.a(altera_up_avalon_character_lcd.o)
 .debug_abbrev  0x00000000000026d5      0x13c /home/codedwrench/Dropbox/school/nios/kbs_periode_4_fpga_game/playstationtest_bsp//libucosii_bsp.a(altera_up_avalon_irda.o)
 .debug_abbrev  0x0000000000002811      0x1a6 /home/codedwrench/Dropbox/school/nios/kbs_periode_4_fpga_game/playstationtest_bsp//libucosii_bsp.a(altera_up_avalon_ps2.o)
 .debug_abbrev  0x00000000000029b7      0x13c /home/codedwrench/Dropbox/school/nios/kbs_periode_4_fpga_game/playstationtest_bsp//libucosii_bsp.a(altera_up_avalon_rs232.o)
 .debug_abbrev  0x0000000000002af3      0x13c /home/codedwrench/Dropbox/school/nios/kbs_periode_4_fpga_game/playstationtest_bsp//libucosii_bsp.a(altera_up_avalon_video_character_buffer_with_dma.o)
 .debug_abbrev  0x0000000000002c2f      0x162 /home/codedwrench/Dropbox/school/nios/kbs_periode_4_fpga_game/playstationtest_bsp//libucosii_bsp.a(alt_alarm_start.o)
 .debug_abbrev  0x0000000000002d91      0x126 /home/codedwrench/Dropbox/school/nios/kbs_periode_4_fpga_game/playstationtest_bsp//libucosii_bsp.a(alt_close.o)
 .debug_abbrev  0x0000000000002eb7       0x42 /home/codedwrench/Dropbox/school/nios/kbs_periode_4_fpga_game/playstationtest_bsp//libucosii_bsp.a(alt_dcache_flush_all.o)
 .debug_abbrev  0x0000000000002ef9      0x11c /home/codedwrench/Dropbox/school/nios/kbs_periode_4_fpga_game/playstationtest_bsp//libucosii_bsp.a(alt_dev.o)
 .debug_abbrev  0x0000000000003015      0x114 /home/codedwrench/Dropbox/school/nios/kbs_periode_4_fpga_game/playstationtest_bsp//libucosii_bsp.a(alt_dev_llist_insert.o)
 .debug_abbrev  0x0000000000003129       0x79 /home/codedwrench/Dropbox/school/nios/kbs_periode_4_fpga_game/playstationtest_bsp//libucosii_bsp.a(alt_do_ctors.o)
 .debug_abbrev  0x00000000000031a2       0x79 /home/codedwrench/Dropbox/school/nios/kbs_periode_4_fpga_game/playstationtest_bsp//libucosii_bsp.a(alt_do_dtors.o)
 .debug_abbrev  0x000000000000321b       0x5a /home/codedwrench/Dropbox/school/nios/kbs_periode_4_fpga_game/playstationtest_bsp//libucosii_bsp.a(alt_errno.o)
 .debug_abbrev  0x0000000000003275       0xf7 /home/codedwrench/Dropbox/school/nios/kbs_periode_4_fpga_game/playstationtest_bsp//libucosii_bsp.a(alt_find_dev.o)
 .debug_abbrev  0x000000000000336c       0x42 /home/codedwrench/Dropbox/school/nios/kbs_periode_4_fpga_game/playstationtest_bsp//libucosii_bsp.a(alt_icache_flush_all.o)
 .debug_abbrev  0x00000000000033ae      0x11b /home/codedwrench/Dropbox/school/nios/kbs_periode_4_fpga_game/playstationtest_bsp//libucosii_bsp.a(alt_io_redirect.o)
 .debug_abbrev  0x00000000000034c9      0x186 /home/codedwrench/Dropbox/school/nios/kbs_periode_4_fpga_game/playstationtest_bsp//libucosii_bsp.a(alt_irq_register.o)
 .debug_abbrev  0x000000000000364f       0x40 /home/codedwrench/Dropbox/school/nios/kbs_periode_4_fpga_game/playstationtest_bsp//libucosii_bsp.a(alt_irq_vars.o)
 .debug_abbrev  0x000000000000368f      0x14f /home/codedwrench/Dropbox/school/nios/kbs_periode_4_fpga_game/playstationtest_bsp//libucosii_bsp.a(alt_open.o)
 .debug_abbrev  0x00000000000037de       0xe5 /home/codedwrench/Dropbox/school/nios/kbs_periode_4_fpga_game/playstationtest_bsp//libucosii_bsp.a(alt_release_fd.o)
 .debug_abbrev  0x00000000000038c3      0x16b /home/codedwrench/Dropbox/school/nios/kbs_periode_4_fpga_game/playstationtest_bsp//libucosii_bsp.a(alt_tick.o)
 .debug_abbrev  0x0000000000003a2e       0x67 /home/codedwrench/Dropbox/school/nios/kbs_periode_4_fpga_game/playstationtest_bsp//libucosii_bsp.a(altera_nios2_gen2_irq.o)
 .debug_abbrev  0x0000000000003a95       0x14 /home/codedwrench/Dropbox/school/nios/kbs_periode_4_fpga_game/playstationtest_bsp//libucosii_bsp.a(os_cpu_a.o)
 .debug_abbrev  0x0000000000003aa9      0x215 /home/codedwrench/Dropbox/school/nios/kbs_periode_4_fpga_game/playstationtest_bsp//libucosii_bsp.a(os_cpu_c.o)
 .debug_abbrev  0x0000000000003cbe       0xf7 /home/codedwrench/Dropbox/school/nios/kbs_periode_4_fpga_game/playstationtest_bsp//libucosii_bsp.a(alt_find_file.o)
 .debug_abbrev  0x0000000000003db5      0x19b /home/codedwrench/Dropbox/school/nios/kbs_periode_4_fpga_game/playstationtest_bsp//libucosii_bsp.a(alt_get_fd.o)
 .debug_abbrev  0x0000000000003f50       0x8c /home/codedwrench/Dropbox/school/nios/kbs_periode_4_fpga_game/playstationtest_bsp//libucosii_bsp.a(alt_icache_flush.o)
 .debug_abbrev  0x0000000000003fdc       0x12 /home/codedwrench/Dropbox/school/nios/kbs_periode_4_fpga_game/playstationtest_bsp//libucosii_bsp.a(alt_irq_entry.o)
 .debug_abbrev  0x0000000000003fee      0x13a /home/codedwrench/Dropbox/school/nios/kbs_periode_4_fpga_game/playstationtest_bsp//libucosii_bsp.a(alt_irq_handler.o)
 .debug_abbrev  0x0000000000004128       0x12 /home/codedwrench/Dropbox/school/nios/kbs_periode_4_fpga_game/playstationtest_bsp//libucosii_bsp.a(alt_exception_entry.o)
 .debug_abbrev  0x000000000000413a       0xd1 /home/codedwrench/Dropbox/school/nios/kbs_periode_4_fpga_game/playstationtest_bsp//libucosii_bsp.a(alt_instruction_exception_entry.o)
 .debug_abbrev  0x000000000000420b       0xb8 /mnt/ssddata/altera_lite/15.1/nios2eds/bin/gnu/H-x86_64-pc-linux-gnu/bin/../lib/gcc/nios2-elf/4.9.2/../../../../../H-x86_64-pc-linux-gnu/nios2-elf/lib/mhw-mulx/libc.a(lib_a-atexit.o)
 .debug_abbrev  0x00000000000042c3      0x1f5 /mnt/ssddata/altera_lite/15.1/nios2eds/bin/gnu/H-x86_64-pc-linux-gnu/bin/../lib/gcc/nios2-elf/4.9.2/../../../../../H-x86_64-pc-linux-gnu/nios2-elf/lib/mhw-mulx/libc.a(lib_a-exit.o)
 .debug_abbrev  0x00000000000044b8      0x18f /mnt/ssddata/altera_lite/15.1/nios2eds/bin/gnu/H-x86_64-pc-linux-gnu/bin/../lib/gcc/nios2-elf/4.9.2/../../../../../H-x86_64-pc-linux-gnu/nios2-elf/lib/mhw-mulx/libc.a(lib_a-impure.o)
 .debug_abbrev  0x0000000000004647       0x37 /mnt/ssddata/altera_lite/15.1/nios2eds/bin/gnu/H-x86_64-pc-linux-gnu/bin/../lib/gcc/nios2-elf/4.9.2/../../../../../H-x86_64-pc-linux-gnu/nios2-elf/lib/mhw-mulx/libc.a(lib_a-int_errno.o)
 .debug_abbrev  0x000000000000467e       0x7f /mnt/ssddata/altera_lite/15.1/nios2eds/bin/gnu/H-x86_64-pc-linux-gnu/bin/../lib/gcc/nios2-elf/4.9.2/../../../../../H-x86_64-pc-linux-gnu/nios2-elf/lib/mhw-mulx/libc.a(lib_a-memcmp.o)
 .debug_abbrev  0x00000000000046fd       0x9c /mnt/ssddata/altera_lite/15.1/nios2eds/bin/gnu/H-x86_64-pc-linux-gnu/bin/../lib/gcc/nios2-elf/4.9.2/../../../../../H-x86_64-pc-linux-gnu/nios2-elf/lib/mhw-mulx/libc.a(lib_a-memcpy.o)
 .debug_abbrev  0x0000000000004799       0xae /mnt/ssddata/altera_lite/15.1/nios2eds/bin/gnu/H-x86_64-pc-linux-gnu/bin/../lib/gcc/nios2-elf/4.9.2/../../../../../H-x86_64-pc-linux-gnu/nios2-elf/lib/mhw-mulx/libc.a(lib_a-memset.o)
 .debug_abbrev  0x0000000000004847       0x74 /mnt/ssddata/altera_lite/15.1/nios2eds/bin/gnu/H-x86_64-pc-linux-gnu/bin/../lib/gcc/nios2-elf/4.9.2/../../../../../H-x86_64-pc-linux-gnu/nios2-elf/lib/mhw-mulx/libc.a(lib_a-strcmp.o)
 .debug_abbrev  0x00000000000048bb       0x90 /mnt/ssddata/altera_lite/15.1/nios2eds/bin/gnu/H-x86_64-pc-linux-gnu/bin/../lib/gcc/nios2-elf/4.9.2/../../../../../H-x86_64-pc-linux-gnu/nios2-elf/lib/mhw-mulx/libc.a(lib_a-strlen.o)
 .debug_abbrev  0x000000000000494b      0x21e /mnt/ssddata/altera_lite/15.1/nios2eds/bin/gnu/H-x86_64-pc-linux-gnu/bin/../lib/gcc/nios2-elf/4.9.2/../../../../../H-x86_64-pc-linux-gnu/nios2-elf/lib/mhw-mulx/libc.a(lib_a-__atexit.o)
 .debug_abbrev  0x0000000000004b69      0x22e /mnt/ssddata/altera_lite/15.1/nios2eds/bin/gnu/H-x86_64-pc-linux-gnu/bin/../lib/gcc/nios2-elf/4.9.2/../../../../../H-x86_64-pc-linux-gnu/nios2-elf/lib/mhw-mulx/libc.a(lib_a-__call_atexit.o)
 .debug_abbrev  0x0000000000004d97       0xde /home/codedwrench/Dropbox/school/nios/kbs_periode_4_fpga_game/playstationtest_bsp//libucosii_bsp.a(alt_exit.o)

.debug_line     0x0000000000000000     0x6278
 *(.debug_line)
 .debug_line    0x0000000000000000       0x6c /home/codedwrench/Dropbox/school/nios/kbs_periode_4_fpga_game/playstationtest_bsp//obj/HAL/src/crt0.o
 .debug_line    0x000000000000006c      0x186 obj/default/graphicslib.o
 .debug_line    0x00000000000001f2      0x194 obj/default/main.o
 .debug_line    0x0000000000000386       0x8d /home/codedwrench/Dropbox/school/nios/kbs_periode_4_fpga_game/playstationtest_bsp//libucosii_bsp.a(alt_load.o)
 .debug_line    0x0000000000000413      0x143 /home/codedwrench/Dropbox/school/nios/kbs_periode_4_fpga_game/playstationtest_bsp//libucosii_bsp.a(alt_main.o)
 .debug_line    0x0000000000000556      0x1ce /home/codedwrench/Dropbox/school/nios/kbs_periode_4_fpga_game/playstationtest_bsp//libucosii_bsp.a(alt_env_lock.o)
 .debug_line    0x0000000000000724      0x23c /home/codedwrench/Dropbox/school/nios/kbs_periode_4_fpga_game/playstationtest_bsp//libucosii_bsp.a(alt_malloc_lock.o)
 .debug_line    0x0000000000000960      0x690 /home/codedwrench/Dropbox/school/nios/kbs_periode_4_fpga_game/playstationtest_bsp//libucosii_bsp.a(os_core.o)
 .debug_line    0x0000000000000ff0       0xe6 /home/codedwrench/Dropbox/school/nios/kbs_periode_4_fpga_game/playstationtest_bsp//libucosii_bsp.a(os_dbg.o)
 .debug_line    0x00000000000010d6      0x519 /home/codedwrench/Dropbox/school/nios/kbs_periode_4_fpga_game/playstationtest_bsp//libucosii_bsp.a(os_flag.o)
 .debug_line    0x00000000000015ef      0x252 /home/codedwrench/Dropbox/school/nios/kbs_periode_4_fpga_game/playstationtest_bsp//libucosii_bsp.a(os_mem.o)
 .debug_line    0x0000000000001841      0x424 /home/codedwrench/Dropbox/school/nios/kbs_periode_4_fpga_game/playstationtest_bsp//libucosii_bsp.a(os_q.o)
 .debug_line    0x0000000000001c65      0x2fe /home/codedwrench/Dropbox/school/nios/kbs_periode_4_fpga_game/playstationtest_bsp//libucosii_bsp.a(os_sem.o)
 .debug_line    0x0000000000001f63      0x55b /home/codedwrench/Dropbox/school/nios/kbs_periode_4_fpga_game/playstationtest_bsp//libucosii_bsp.a(os_task.o)
 .debug_line    0x00000000000024be      0x1bf /home/codedwrench/Dropbox/school/nios/kbs_periode_4_fpga_game/playstationtest_bsp//libucosii_bsp.a(os_time.o)
 .debug_line    0x000000000000267d      0x36e /home/codedwrench/Dropbox/school/nios/kbs_periode_4_fpga_game/playstationtest_bsp//libucosii_bsp.a(alt_sys_init.o)
 .debug_line    0x00000000000029eb      0x169 /home/codedwrench/Dropbox/school/nios/kbs_periode_4_fpga_game/playstationtest_bsp//libucosii_bsp.a(altera_avalon_jtag_uart_fd.o)
 .debug_line    0x0000000000002b54      0x231 /home/codedwrench/Dropbox/school/nios/kbs_periode_4_fpga_game/playstationtest_bsp//libucosii_bsp.a(altera_avalon_jtag_uart_init.o)
 .debug_line    0x0000000000002d85      0x168 /home/codedwrench/Dropbox/school/nios/kbs_periode_4_fpga_game/playstationtest_bsp//libucosii_bsp.a(altera_avalon_jtag_uart_ioctl.o)
 .debug_line    0x0000000000002eed      0x1ec /home/codedwrench/Dropbox/school/nios/kbs_periode_4_fpga_game/playstationtest_bsp//libucosii_bsp.a(altera_avalon_jtag_uart_read.o)
 .debug_line    0x00000000000030d9      0x1ec /home/codedwrench/Dropbox/school/nios/kbs_periode_4_fpga_game/playstationtest_bsp//libucosii_bsp.a(altera_avalon_jtag_uart_write.o)
 .debug_line    0x00000000000032c5      0x113 /home/codedwrench/Dropbox/school/nios/kbs_periode_4_fpga_game/playstationtest_bsp//libucosii_bsp.a(altera_avalon_timer_sc.o)
 .debug_line    0x00000000000033d8      0x1cc /home/codedwrench/Dropbox/school/nios/kbs_periode_4_fpga_game/playstationtest_bsp//libucosii_bsp.a(altera_up_avalon_character_lcd.o)
 .debug_line    0x00000000000035a4      0x15c /home/codedwrench/Dropbox/school/nios/kbs_periode_4_fpga_game/playstationtest_bsp//libucosii_bsp.a(altera_up_avalon_irda.o)
 .debug_line    0x0000000000003700      0x1c8 /home/codedwrench/Dropbox/school/nios/kbs_periode_4_fpga_game/playstationtest_bsp//libucosii_bsp.a(altera_up_avalon_ps2.o)
 .debug_line    0x00000000000038c8      0x162 /home/codedwrench/Dropbox/school/nios/kbs_periode_4_fpga_game/playstationtest_bsp//libucosii_bsp.a(altera_up_avalon_rs232.o)
 .debug_line    0x0000000000003a2a      0x190 /home/codedwrench/Dropbox/school/nios/kbs_periode_4_fpga_game/playstationtest_bsp//libucosii_bsp.a(altera_up_avalon_video_character_buffer_with_dma.o)
 .debug_line    0x0000000000003bba      0x10e /home/codedwrench/Dropbox/school/nios/kbs_periode_4_fpga_game/playstationtest_bsp//libucosii_bsp.a(alt_alarm_start.o)
 .debug_line    0x0000000000003cc8      0x195 /home/codedwrench/Dropbox/school/nios/kbs_periode_4_fpga_game/playstationtest_bsp//libucosii_bsp.a(alt_close.o)
 .debug_line    0x0000000000003e5d       0x51 /home/codedwrench/Dropbox/school/nios/kbs_periode_4_fpga_game/playstationtest_bsp//libucosii_bsp.a(alt_dcache_flush_all.o)
 .debug_line    0x0000000000003eae      0x15c /home/codedwrench/Dropbox/school/nios/kbs_periode_4_fpga_game/playstationtest_bsp//libucosii_bsp.a(alt_dev.o)
 .debug_line    0x000000000000400a       0xd0 /home/codedwrench/Dropbox/school/nios/kbs_periode_4_fpga_game/playstationtest_bsp//libucosii_bsp.a(alt_dev_llist_insert.o)
 .debug_line    0x00000000000040da       0x59 /home/codedwrench/Dropbox/school/nios/kbs_periode_4_fpga_game/playstationtest_bsp//libucosii_bsp.a(alt_do_ctors.o)
 .debug_line    0x0000000000004133       0x59 /home/codedwrench/Dropbox/school/nios/kbs_periode_4_fpga_game/playstationtest_bsp//libucosii_bsp.a(alt_do_dtors.o)
 .debug_line    0x000000000000418c       0x51 /home/codedwrench/Dropbox/school/nios/kbs_periode_4_fpga_game/playstationtest_bsp//libucosii_bsp.a(alt_errno.o)
 .debug_line    0x00000000000041dd       0xd8 /home/codedwrench/Dropbox/school/nios/kbs_periode_4_fpga_game/playstationtest_bsp//libucosii_bsp.a(alt_find_dev.o)
 .debug_line    0x00000000000042b5       0x50 /home/codedwrench/Dropbox/school/nios/kbs_periode_4_fpga_game/playstationtest_bsp//libucosii_bsp.a(alt_icache_flush_all.o)
 .debug_line    0x0000000000004305      0x162 /home/codedwrench/Dropbox/school/nios/kbs_periode_4_fpga_game/playstationtest_bsp//libucosii_bsp.a(alt_io_redirect.o)
 .debug_line    0x0000000000004467      0x168 /home/codedwrench/Dropbox/school/nios/kbs_periode_4_fpga_game/playstationtest_bsp//libucosii_bsp.a(alt_irq_register.o)
 .debug_line    0x00000000000045cf       0x50 /home/codedwrench/Dropbox/school/nios/kbs_periode_4_fpga_game/playstationtest_bsp//libucosii_bsp.a(alt_irq_vars.o)
 .debug_line    0x000000000000461f      0x14d /home/codedwrench/Dropbox/school/nios/kbs_periode_4_fpga_game/playstationtest_bsp//libucosii_bsp.a(alt_open.o)
 .debug_line    0x000000000000476c       0xd1 /home/codedwrench/Dropbox/school/nios/kbs_periode_4_fpga_game/playstationtest_bsp//libucosii_bsp.a(alt_release_fd.o)
 .debug_line    0x000000000000483d      0x112 /home/codedwrench/Dropbox/school/nios/kbs_periode_4_fpga_game/playstationtest_bsp//libucosii_bsp.a(alt_tick.o)
 .debug_line    0x000000000000494f       0x8d /home/codedwrench/Dropbox/school/nios/kbs_periode_4_fpga_game/playstationtest_bsp//libucosii_bsp.a(altera_nios2_gen2_irq.o)
 .debug_line    0x00000000000049dc       0x86 /home/codedwrench/Dropbox/school/nios/kbs_periode_4_fpga_game/playstationtest_bsp//libucosii_bsp.a(os_cpu_a.o)
 .debug_line    0x0000000000004a62      0x1d5 /home/codedwrench/Dropbox/school/nios/kbs_periode_4_fpga_game/playstationtest_bsp//libucosii_bsp.a(os_cpu_c.o)
 .debug_line    0x0000000000004c37       0xf4 /home/codedwrench/Dropbox/school/nios/kbs_periode_4_fpga_game/playstationtest_bsp//libucosii_bsp.a(alt_find_file.o)
 .debug_line    0x0000000000004d2b      0x13d /home/codedwrench/Dropbox/school/nios/kbs_periode_4_fpga_game/playstationtest_bsp//libucosii_bsp.a(alt_get_fd.o)
 .debug_line    0x0000000000004e68       0x81 /home/codedwrench/Dropbox/school/nios/kbs_periode_4_fpga_game/playstationtest_bsp//libucosii_bsp.a(alt_icache_flush.o)
 .debug_line    0x0000000000004ee9       0x6b /home/codedwrench/Dropbox/school/nios/kbs_periode_4_fpga_game/playstationtest_bsp//libucosii_bsp.a(alt_irq_entry.o)
 .debug_line    0x0000000000004f54       0xdc /home/codedwrench/Dropbox/school/nios/kbs_periode_4_fpga_game/playstationtest_bsp//libucosii_bsp.a(alt_irq_handler.o)
 .debug_line    0x0000000000005030       0xb3 /home/codedwrench/Dropbox/school/nios/kbs_periode_4_fpga_game/playstationtest_bsp//libucosii_bsp.a(alt_exception_entry.o)
 .debug_line    0x00000000000050e3       0xba /home/codedwrench/Dropbox/school/nios/kbs_periode_4_fpga_game/playstationtest_bsp//libucosii_bsp.a(alt_instruction_exception_entry.o)
 .debug_line    0x000000000000519d       0xe7 /mnt/ssddata/altera_lite/15.1/nios2eds/bin/gnu/H-x86_64-pc-linux-gnu/bin/../lib/gcc/nios2-elf/4.9.2/../../../../../H-x86_64-pc-linux-gnu/nios2-elf/lib/mhw-mulx/libc.a(lib_a-atexit.o)
 .debug_line    0x0000000000005284      0x1fc /mnt/ssddata/altera_lite/15.1/nios2eds/bin/gnu/H-x86_64-pc-linux-gnu/bin/../lib/gcc/nios2-elf/4.9.2/../../../../../H-x86_64-pc-linux-gnu/nios2-elf/lib/mhw-mulx/libc.a(lib_a-exit.o)
 .debug_line    0x0000000000005480      0x160 /mnt/ssddata/altera_lite/15.1/nios2eds/bin/gnu/H-x86_64-pc-linux-gnu/bin/../lib/gcc/nios2-elf/4.9.2/../../../../../H-x86_64-pc-linux-gnu/nios2-elf/lib/mhw-mulx/libc.a(lib_a-impure.o)
 .debug_line    0x00000000000055e0       0x5f /mnt/ssddata/altera_lite/15.1/nios2eds/bin/gnu/H-x86_64-pc-linux-gnu/bin/../lib/gcc/nios2-elf/4.9.2/../../../../../H-x86_64-pc-linux-gnu/nios2-elf/lib/mhw-mulx/libc.a(lib_a-int_errno.o)
 .debug_line    0x000000000000563f      0x176 /mnt/ssddata/altera_lite/15.1/nios2eds/bin/gnu/H-x86_64-pc-linux-gnu/bin/../lib/gcc/nios2-elf/4.9.2/../../../../../H-x86_64-pc-linux-gnu/nios2-elf/lib/mhw-mulx/libc.a(lib_a-memcmp.o)
 .debug_line    0x00000000000057b5      0x185 /mnt/ssddata/altera_lite/15.1/nios2eds/bin/gnu/H-x86_64-pc-linux-gnu/bin/../lib/gcc/nios2-elf/4.9.2/../../../../../H-x86_64-pc-linux-gnu/nios2-elf/lib/mhw-mulx/libc.a(lib_a-memcpy.o)
 .debug_line    0x000000000000593a      0x18f /mnt/ssddata/altera_lite/15.1/nios2eds/bin/gnu/H-x86_64-pc-linux-gnu/bin/../lib/gcc/nios2-elf/4.9.2/../../../../../H-x86_64-pc-linux-gnu/nios2-elf/lib/mhw-mulx/libc.a(lib_a-memset.o)
 .debug_line    0x0000000000005ac9       0xf7 /mnt/ssddata/altera_lite/15.1/nios2eds/bin/gnu/H-x86_64-pc-linux-gnu/bin/../lib/gcc/nios2-elf/4.9.2/../../../../../H-x86_64-pc-linux-gnu/nios2-elf/lib/mhw-mulx/libc.a(lib_a-strcmp.o)
 .debug_line    0x0000000000005bc0      0x16f /mnt/ssddata/altera_lite/15.1/nios2eds/bin/gnu/H-x86_64-pc-linux-gnu/bin/../lib/gcc/nios2-elf/4.9.2/../../../../../H-x86_64-pc-linux-gnu/nios2-elf/lib/mhw-mulx/libc.a(lib_a-strlen.o)
 .debug_line    0x0000000000005d2f      0x225 /mnt/ssddata/altera_lite/15.1/nios2eds/bin/gnu/H-x86_64-pc-linux-gnu/bin/../lib/gcc/nios2-elf/4.9.2/../../../../../H-x86_64-pc-linux-gnu/nios2-elf/lib/mhw-mulx/libc.a(lib_a-__atexit.o)
 .debug_line    0x0000000000005f54      0x241 /mnt/ssddata/altera_lite/15.1/nios2eds/bin/gnu/H-x86_64-pc-linux-gnu/bin/../lib/gcc/nios2-elf/4.9.2/../../../../../H-x86_64-pc-linux-gnu/nios2-elf/lib/mhw-mulx/libc.a(lib_a-__call_atexit.o)
 .debug_line    0x0000000000006195       0xe3 /home/codedwrench/Dropbox/school/nios/kbs_periode_4_fpga_game/playstationtest_bsp//libucosii_bsp.a(alt_exit.o)

.debug_frame    0x0000000000000000     0x2510
 *(.debug_frame)
 .debug_frame   0x0000000000000000      0x110 obj/default/graphicslib.o
 .debug_frame   0x0000000000000110       0x7c obj/default/main.o
 .debug_frame   0x000000000000018c       0x5c /home/codedwrench/Dropbox/school/nios/kbs_periode_4_fpga_game/playstationtest_bsp//libucosii_bsp.a(alt_load.o)
 .debug_frame   0x00000000000001e8       0x2c /home/codedwrench/Dropbox/school/nios/kbs_periode_4_fpga_game/playstationtest_bsp//libucosii_bsp.a(alt_main.o)
 .debug_frame   0x0000000000000214       0x60 /home/codedwrench/Dropbox/school/nios/kbs_periode_4_fpga_game/playstationtest_bsp//libucosii_bsp.a(alt_env_lock.o)
 .debug_frame   0x0000000000000274       0x64 /home/codedwrench/Dropbox/school/nios/kbs_periode_4_fpga_game/playstationtest_bsp//libucosii_bsp.a(alt_malloc_lock.o)
 .debug_frame   0x00000000000002d8      0x534 /home/codedwrench/Dropbox/school/nios/kbs_periode_4_fpga_game/playstationtest_bsp//libucosii_bsp.a(os_core.o)
 .debug_frame   0x000000000000080c       0x34 /home/codedwrench/Dropbox/school/nios/kbs_periode_4_fpga_game/playstationtest_bsp//libucosii_bsp.a(os_dbg.o)
 .debug_frame   0x0000000000000840      0x200 /home/codedwrench/Dropbox/school/nios/kbs_periode_4_fpga_game/playstationtest_bsp//libucosii_bsp.a(os_flag.o)
 .debug_frame   0x0000000000000a40      0x118 /home/codedwrench/Dropbox/school/nios/kbs_periode_4_fpga_game/playstationtest_bsp//libucosii_bsp.a(os_mem.o)
 .debug_frame   0x0000000000000b58      0x1bc /home/codedwrench/Dropbox/school/nios/kbs_periode_4_fpga_game/playstationtest_bsp//libucosii_bsp.a(os_q.o)
 .debug_frame   0x0000000000000d14      0x144 /home/codedwrench/Dropbox/school/nios/kbs_periode_4_fpga_game/playstationtest_bsp//libucosii_bsp.a(os_sem.o)
 .debug_frame   0x0000000000000e58      0x1e4 /home/codedwrench/Dropbox/school/nios/kbs_periode_4_fpga_game/playstationtest_bsp//libucosii_bsp.a(os_task.o)
 .debug_frame   0x000000000000103c       0xd0 /home/codedwrench/Dropbox/school/nios/kbs_periode_4_fpga_game/playstationtest_bsp//libucosii_bsp.a(os_time.o)
 .debug_frame   0x000000000000110c       0x88 /home/codedwrench/Dropbox/school/nios/kbs_periode_4_fpga_game/playstationtest_bsp//libucosii_bsp.a(alt_sys_init.o)
 .debug_frame   0x0000000000001194       0xb0 /home/codedwrench/Dropbox/school/nios/kbs_periode_4_fpga_game/playstationtest_bsp//libucosii_bsp.a(altera_avalon_jtag_uart_fd.o)
 .debug_frame   0x0000000000001244       0xac /home/codedwrench/Dropbox/school/nios/kbs_periode_4_fpga_game/playstationtest_bsp//libucosii_bsp.a(altera_avalon_jtag_uart_init.o)
 .debug_frame   0x00000000000012f0       0x34 /home/codedwrench/Dropbox/school/nios/kbs_periode_4_fpga_game/playstationtest_bsp//libucosii_bsp.a(altera_avalon_jtag_uart_ioctl.o)
 .debug_frame   0x0000000000001324       0x38 /home/codedwrench/Dropbox/school/nios/kbs_periode_4_fpga_game/playstationtest_bsp//libucosii_bsp.a(altera_avalon_jtag_uart_read.o)
 .debug_frame   0x000000000000135c       0x38 /home/codedwrench/Dropbox/school/nios/kbs_periode_4_fpga_game/playstationtest_bsp//libucosii_bsp.a(altera_avalon_jtag_uart_write.o)
 .debug_frame   0x0000000000001394       0x60 /home/codedwrench/Dropbox/school/nios/kbs_periode_4_fpga_game/playstationtest_bsp//libucosii_bsp.a(altera_avalon_timer_sc.o)
 .debug_frame   0x00000000000013f4      0x204 /home/codedwrench/Dropbox/school/nios/kbs_periode_4_fpga_game/playstationtest_bsp//libucosii_bsp.a(altera_up_avalon_character_lcd.o)
 .debug_frame   0x00000000000015f8      0x188 /home/codedwrench/Dropbox/school/nios/kbs_periode_4_fpga_game/playstationtest_bsp//libucosii_bsp.a(altera_up_avalon_irda.o)
 .debug_frame   0x0000000000001780      0x2c0 /home/codedwrench/Dropbox/school/nios/kbs_periode_4_fpga_game/playstationtest_bsp//libucosii_bsp.a(altera_up_avalon_ps2.o)
 .debug_frame   0x0000000000001a40      0x188 /home/codedwrench/Dropbox/school/nios/kbs_periode_4_fpga_game/playstationtest_bsp//libucosii_bsp.a(altera_up_avalon_rs232.o)
 .debug_frame   0x0000000000001bc8       0xcc /home/codedwrench/Dropbox/school/nios/kbs_periode_4_fpga_game/playstationtest_bsp//libucosii_bsp.a(altera_up_avalon_video_character_buffer_with_dma.o)
 .debug_frame   0x0000000000001c94       0x34 /home/codedwrench/Dropbox/school/nios/kbs_periode_4_fpga_game/playstationtest_bsp//libucosii_bsp.a(alt_alarm_start.o)
 .debug_frame   0x0000000000001cc8       0x60 /home/codedwrench/Dropbox/school/nios/kbs_periode_4_fpga_game/playstationtest_bsp//libucosii_bsp.a(alt_close.o)
 .debug_frame   0x0000000000001d28       0x34 /home/codedwrench/Dropbox/school/nios/kbs_periode_4_fpga_game/playstationtest_bsp//libucosii_bsp.a(alt_dcache_flush_all.o)
 .debug_frame   0x0000000000001d5c       0x34 /home/codedwrench/Dropbox/school/nios/kbs_periode_4_fpga_game/playstationtest_bsp//libucosii_bsp.a(alt_dev.o)
 .debug_frame   0x0000000000001d90       0x60 /home/codedwrench/Dropbox/school/nios/kbs_periode_4_fpga_game/playstationtest_bsp//libucosii_bsp.a(alt_dev_llist_insert.o)
 .debug_frame   0x0000000000001df0       0x38 /home/codedwrench/Dropbox/school/nios/kbs_periode_4_fpga_game/playstationtest_bsp//libucosii_bsp.a(alt_do_ctors.o)
 .debug_frame   0x0000000000001e28       0x38 /home/codedwrench/Dropbox/school/nios/kbs_periode_4_fpga_game/playstationtest_bsp//libucosii_bsp.a(alt_do_dtors.o)
 .debug_frame   0x0000000000001e60       0x38 /home/codedwrench/Dropbox/school/nios/kbs_periode_4_fpga_game/playstationtest_bsp//libucosii_bsp.a(alt_find_dev.o)
 .debug_frame   0x0000000000001e98       0x38 /home/codedwrench/Dropbox/school/nios/kbs_periode_4_fpga_game/playstationtest_bsp//libucosii_bsp.a(alt_icache_flush_all.o)
 .debug_frame   0x0000000000001ed0       0x60 /home/codedwrench/Dropbox/school/nios/kbs_periode_4_fpga_game/playstationtest_bsp//libucosii_bsp.a(alt_io_redirect.o)
 .debug_frame   0x0000000000001f30       0x34 /home/codedwrench/Dropbox/school/nios/kbs_periode_4_fpga_game/playstationtest_bsp//libucosii_bsp.a(alt_irq_register.o)
 .debug_frame   0x0000000000001f64       0x84 /home/codedwrench/Dropbox/school/nios/kbs_periode_4_fpga_game/playstationtest_bsp//libucosii_bsp.a(alt_open.o)
 .debug_frame   0x0000000000001fe8       0x34 /home/codedwrench/Dropbox/school/nios/kbs_periode_4_fpga_game/playstationtest_bsp//libucosii_bsp.a(alt_release_fd.o)
 .debug_frame   0x000000000000201c       0x5c /home/codedwrench/Dropbox/school/nios/kbs_periode_4_fpga_game/playstationtest_bsp//libucosii_bsp.a(alt_tick.o)
 .debug_frame   0x0000000000002078       0x34 /home/codedwrench/Dropbox/school/nios/kbs_periode_4_fpga_game/playstationtest_bsp//libucosii_bsp.a(altera_nios2_gen2_irq.o)
 .debug_frame   0x00000000000020ac      0x17c /home/codedwrench/Dropbox/school/nios/kbs_periode_4_fpga_game/playstationtest_bsp//libucosii_bsp.a(os_cpu_c.o)
 .debug_frame   0x0000000000002228       0x38 /home/codedwrench/Dropbox/school/nios/kbs_periode_4_fpga_game/playstationtest_bsp//libucosii_bsp.a(alt_find_file.o)
 .debug_frame   0x0000000000002260       0x38 /home/codedwrench/Dropbox/school/nios/kbs_periode_4_fpga_game/playstationtest_bsp//libucosii_bsp.a(alt_get_fd.o)
 .debug_frame   0x0000000000002298       0x34 /home/codedwrench/Dropbox/school/nios/kbs_periode_4_fpga_game/playstationtest_bsp//libucosii_bsp.a(alt_icache_flush.o)
 .debug_frame   0x00000000000022cc       0x38 /home/codedwrench/Dropbox/school/nios/kbs_periode_4_fpga_game/playstationtest_bsp//libucosii_bsp.a(alt_irq_handler.o)
 .debug_frame   0x0000000000002304       0x5c /home/codedwrench/Dropbox/school/nios/kbs_periode_4_fpga_game/playstationtest_bsp//libucosii_bsp.a(alt_instruction_exception_entry.o)
 .debug_frame   0x0000000000002360       0x20 /mnt/ssddata/altera_lite/15.1/nios2eds/bin/gnu/H-x86_64-pc-linux-gnu/bin/../lib/gcc/nios2-elf/4.9.2/../../../../../H-x86_64-pc-linux-gnu/nios2-elf/lib/mhw-mulx/libc.a(lib_a-atexit.o)
 .debug_frame   0x0000000000002380       0x28 /mnt/ssddata/altera_lite/15.1/nios2eds/bin/gnu/H-x86_64-pc-linux-gnu/bin/../lib/gcc/nios2-elf/4.9.2/../../../../../H-x86_64-pc-linux-gnu/nios2-elf/lib/mhw-mulx/libc.a(lib_a-exit.o)
 .debug_frame   0x00000000000023a8       0x20 /mnt/ssddata/altera_lite/15.1/nios2eds/bin/gnu/H-x86_64-pc-linux-gnu/bin/../lib/gcc/nios2-elf/4.9.2/../../../../../H-x86_64-pc-linux-gnu/nios2-elf/lib/mhw-mulx/libc.a(lib_a-memcmp.o)
 .debug_frame   0x00000000000023c8       0x30 /mnt/ssddata/altera_lite/15.1/nios2eds/bin/gnu/H-x86_64-pc-linux-gnu/bin/../lib/gcc/nios2-elf/4.9.2/../../../../../H-x86_64-pc-linux-gnu/nios2-elf/lib/mhw-mulx/libc.a(lib_a-memcpy.o)
 .debug_frame   0x00000000000023f8       0x20 /mnt/ssddata/altera_lite/15.1/nios2eds/bin/gnu/H-x86_64-pc-linux-gnu/bin/../lib/gcc/nios2-elf/4.9.2/../../../../../H-x86_64-pc-linux-gnu/nios2-elf/lib/mhw-mulx/libc.a(lib_a-memset.o)
 .debug_frame   0x0000000000002418       0x20 /mnt/ssddata/altera_lite/15.1/nios2eds/bin/gnu/H-x86_64-pc-linux-gnu/bin/../lib/gcc/nios2-elf/4.9.2/../../../../../H-x86_64-pc-linux-gnu/nios2-elf/lib/mhw-mulx/libc.a(lib_a-strcmp.o)
 .debug_frame   0x0000000000002438       0x20 /mnt/ssddata/altera_lite/15.1/nios2eds/bin/gnu/H-x86_64-pc-linux-gnu/bin/../lib/gcc/nios2-elf/4.9.2/../../../../../H-x86_64-pc-linux-gnu/nios2-elf/lib/mhw-mulx/libc.a(lib_a-strlen.o)
 .debug_frame   0x0000000000002458       0x38 /mnt/ssddata/altera_lite/15.1/nios2eds/bin/gnu/H-x86_64-pc-linux-gnu/bin/../lib/gcc/nios2-elf/4.9.2/../../../../../H-x86_64-pc-linux-gnu/nios2-elf/lib/mhw-mulx/libc.a(lib_a-__atexit.o)
 .debug_frame   0x0000000000002490       0x54 /mnt/ssddata/altera_lite/15.1/nios2eds/bin/gnu/H-x86_64-pc-linux-gnu/bin/../lib/gcc/nios2-elf/4.9.2/../../../../../H-x86_64-pc-linux-gnu/nios2-elf/lib/mhw-mulx/libc.a(lib_a-__call_atexit.o)
 .debug_frame   0x00000000000024e4       0x2c /home/codedwrench/Dropbox/school/nios/kbs_periode_4_fpga_game/playstationtest_bsp//libucosii_bsp.a(alt_exit.o)

.debug_str      0x0000000000000000     0x37f1
 *(.debug_str)
 .debug_str     0x0000000000000000      0x1e4 obj/default/graphicslib.o
                                        0x22f (size before relaxing)
 .debug_str     0x00000000000001e4       0xa2 obj/default/main.o
                                        0x20c (size before relaxing)
 .debug_str     0x0000000000000286      0x13b /home/codedwrench/Dropbox/school/nios/kbs_periode_4_fpga_game/playstationtest_bsp//libucosii_bsp.a(alt_load.o)
                                        0x21a (size before relaxing)
 .debug_str     0x00000000000003c1       0xfd /home/codedwrench/Dropbox/school/nios/kbs_periode_4_fpga_game/playstationtest_bsp//libucosii_bsp.a(alt_main.o)
                                        0x289 (size before relaxing)
 .debug_str     0x00000000000004be      0x590 /home/codedwrench/Dropbox/school/nios/kbs_periode_4_fpga_game/playstationtest_bsp//libucosii_bsp.a(alt_env_lock.o)
                                        0x7f1 (size before relaxing)
 .debug_str     0x0000000000000a4e       0x8b /home/codedwrench/Dropbox/school/nios/kbs_periode_4_fpga_game/playstationtest_bsp//libucosii_bsp.a(alt_malloc_lock.o)
                                        0x853 (size before relaxing)
 .debug_str     0x0000000000000ad9      0x531 /home/codedwrench/Dropbox/school/nios/kbs_periode_4_fpga_game/playstationtest_bsp//libucosii_bsp.a(os_core.o)
                                        0x97f (size before relaxing)
 .debug_str     0x000000000000100a      0x2e5 /home/codedwrench/Dropbox/school/nios/kbs_periode_4_fpga_game/playstationtest_bsp//libucosii_bsp.a(os_dbg.o)
                                        0x8ee (size before relaxing)
 .debug_str     0x00000000000012ef      0x136 /home/codedwrench/Dropbox/school/nios/kbs_periode_4_fpga_game/playstationtest_bsp//libucosii_bsp.a(os_flag.o)
                                        0x61b (size before relaxing)
 .debug_str     0x0000000000001425       0xcf /home/codedwrench/Dropbox/school/nios/kbs_periode_4_fpga_game/playstationtest_bsp//libucosii_bsp.a(os_mem.o)
                                        0x324 (size before relaxing)
 .debug_str     0x00000000000014f4       0xc0 /home/codedwrench/Dropbox/school/nios/kbs_periode_4_fpga_game/playstationtest_bsp//libucosii_bsp.a(os_q.o)
                                        0x59e (size before relaxing)
 .debug_str     0x00000000000015b4       0x77 /home/codedwrench/Dropbox/school/nios/kbs_periode_4_fpga_game/playstationtest_bsp//libucosii_bsp.a(os_sem.o)
                                        0x527 (size before relaxing)
 .debug_str     0x000000000000162b      0x118 /home/codedwrench/Dropbox/school/nios/kbs_periode_4_fpga_game/playstationtest_bsp//libucosii_bsp.a(os_task.o)
                                        0x62a (size before relaxing)
 .debug_str     0x0000000000001743       0x6d /home/codedwrench/Dropbox/school/nios/kbs_periode_4_fpga_game/playstationtest_bsp//libucosii_bsp.a(os_time.o)
                                        0x4ca (size before relaxing)
 .debug_str     0x00000000000017b0      0x546 /home/codedwrench/Dropbox/school/nios/kbs_periode_4_fpga_game/playstationtest_bsp//libucosii_bsp.a(alt_sys_init.o)
                                        0x841 (size before relaxing)
 .debug_str     0x0000000000001cf6       0xb2 /home/codedwrench/Dropbox/school/nios/kbs_periode_4_fpga_game/playstationtest_bsp//libucosii_bsp.a(altera_avalon_jtag_uart_fd.o)
                                        0x4bd (size before relaxing)
 .debug_str     0x0000000000001da8       0xee /home/codedwrench/Dropbox/school/nios/kbs_periode_4_fpga_game/playstationtest_bsp//libucosii_bsp.a(altera_avalon_jtag_uart_init.o)
                                        0x484 (size before relaxing)
 .debug_str     0x0000000000001e96       0x4a /home/codedwrench/Dropbox/school/nios/kbs_periode_4_fpga_game/playstationtest_bsp//libucosii_bsp.a(altera_avalon_jtag_uart_ioctl.o)
                                        0x3ac (size before relaxing)
 .debug_str     0x0000000000001ee0       0x63 /home/codedwrench/Dropbox/school/nios/kbs_periode_4_fpga_game/playstationtest_bsp//libucosii_bsp.a(altera_avalon_jtag_uart_read.o)
                                        0x41f (size before relaxing)
 .debug_str     0x0000000000001f43       0x4a /home/codedwrench/Dropbox/school/nios/kbs_periode_4_fpga_game/playstationtest_bsp//libucosii_bsp.a(altera_avalon_jtag_uart_write.o)
                                        0x420 (size before relaxing)
 .debug_str     0x0000000000001f8d       0x66 /home/codedwrench/Dropbox/school/nios/kbs_periode_4_fpga_game/playstationtest_bsp//libucosii_bsp.a(altera_avalon_timer_sc.o)
                                        0x274 (size before relaxing)
 .debug_str     0x0000000000001ff3      0x1ea /home/codedwrench/Dropbox/school/nios/kbs_periode_4_fpga_game/playstationtest_bsp//libucosii_bsp.a(altera_up_avalon_character_lcd.o)
                                        0x427 (size before relaxing)
 .debug_str     0x00000000000021dd      0x16e /home/codedwrench/Dropbox/school/nios/kbs_periode_4_fpga_game/playstationtest_bsp//libucosii_bsp.a(altera_up_avalon_irda.o)
                                        0x3b0 (size before relaxing)
 .debug_str     0x000000000000234b      0x1c5 /home/codedwrench/Dropbox/school/nios/kbs_periode_4_fpga_game/playstationtest_bsp//libucosii_bsp.a(altera_up_avalon_ps2.o)
                                        0x483 (size before relaxing)
 .debug_str     0x0000000000002510      0x154 /home/codedwrench/Dropbox/school/nios/kbs_periode_4_fpga_game/playstationtest_bsp//libucosii_bsp.a(altera_up_avalon_rs232.o)
                                        0x3bd (size before relaxing)
 .debug_str     0x0000000000002664       0xca /home/codedwrench/Dropbox/school/nios/kbs_periode_4_fpga_game/playstationtest_bsp//libucosii_bsp.a(altera_up_avalon_video_character_buffer_with_dma.o)
                                        0x373 (size before relaxing)
 .debug_str     0x000000000000272e       0x59 /home/codedwrench/Dropbox/school/nios/kbs_periode_4_fpga_game/playstationtest_bsp//libucosii_bsp.a(alt_alarm_start.o)
                                        0x2a7 (size before relaxing)
 .debug_str     0x0000000000002787       0x44 /home/codedwrench/Dropbox/school/nios/kbs_periode_4_fpga_game/playstationtest_bsp//libucosii_bsp.a(alt_close.o)
                                        0x264 (size before relaxing)
 .debug_str     0x00000000000027cb       0x34 /home/codedwrench/Dropbox/school/nios/kbs_periode_4_fpga_game/playstationtest_bsp//libucosii_bsp.a(alt_dcache_flush_all.o)
                                        0x15d (size before relaxing)
 .debug_str     0x00000000000027ff      0x119 /home/codedwrench/Dropbox/school/nios/kbs_periode_4_fpga_game/playstationtest_bsp//libucosii_bsp.a(alt_dev.o)
                                        0x3d2 (size before relaxing)
 .debug_str     0x0000000000002918       0x34 /home/codedwrench/Dropbox/school/nios/kbs_periode_4_fpga_game/playstationtest_bsp//libucosii_bsp.a(alt_dev_llist_insert.o)
                                        0x1d4 (size before relaxing)
 .debug_str     0x000000000000294c       0x48 /home/codedwrench/Dropbox/school/nios/kbs_periode_4_fpga_game/playstationtest_bsp//libucosii_bsp.a(alt_do_ctors.o)
                                         0xe4 (size before relaxing)
 .debug_str     0x0000000000002994       0x4c /home/codedwrench/Dropbox/school/nios/kbs_periode_4_fpga_game/playstationtest_bsp//libucosii_bsp.a(alt_do_dtors.o)
                                         0xe3 (size before relaxing)
 .debug_str     0x00000000000029e0       0x14 /home/codedwrench/Dropbox/school/nios/kbs_periode_4_fpga_game/playstationtest_bsp//libucosii_bsp.a(alt_errno.o)
                                        0x14d (size before relaxing)
 .debug_str     0x00000000000029f4       0x24 /home/codedwrench/Dropbox/school/nios/kbs_periode_4_fpga_game/playstationtest_bsp//libucosii_bsp.a(alt_find_dev.o)
                                        0x245 (size before relaxing)
 .debug_str     0x0000000000002a18       0x34 /home/codedwrench/Dropbox/school/nios/kbs_periode_4_fpga_game/playstationtest_bsp//libucosii_bsp.a(alt_icache_flush_all.o)
                                        0x15d (size before relaxing)
 .debug_str     0x0000000000002a4c       0x56 /home/codedwrench/Dropbox/school/nios/kbs_periode_4_fpga_game/playstationtest_bsp//libucosii_bsp.a(alt_io_redirect.o)
                                        0x36f (size before relaxing)
 .debug_str     0x0000000000002aa2       0x70 /home/codedwrench/Dropbox/school/nios/kbs_periode_4_fpga_game/playstationtest_bsp//libucosii_bsp.a(alt_irq_register.o)
                                        0x238 (size before relaxing)
 .debug_str     0x0000000000002b12       0x17 /home/codedwrench/Dropbox/school/nios/kbs_periode_4_fpga_game/playstationtest_bsp//libucosii_bsp.a(alt_irq_vars.o)
                                        0x14e (size before relaxing)
 .debug_str     0x0000000000002b29       0x2f /home/codedwrench/Dropbox/school/nios/kbs_periode_4_fpga_game/playstationtest_bsp//libucosii_bsp.a(alt_open.o)
                                        0x29c (size before relaxing)
 .debug_str     0x0000000000002b58       0x28 /home/codedwrench/Dropbox/school/nios/kbs_periode_4_fpga_game/playstationtest_bsp//libucosii_bsp.a(alt_release_fd.o)
                                        0x24e (size before relaxing)
 .debug_str     0x0000000000002b80       0x4a /home/codedwrench/Dropbox/school/nios/kbs_periode_4_fpga_game/playstationtest_bsp//libucosii_bsp.a(alt_tick.o)
                                        0x288 (size before relaxing)
 .debug_str     0x0000000000002bca       0x3b /home/codedwrench/Dropbox/school/nios/kbs_periode_4_fpga_game/playstationtest_bsp//libucosii_bsp.a(altera_nios2_gen2_irq.o)
                                        0x18d (size before relaxing)
 .debug_str     0x0000000000002c05       0xd5 /home/codedwrench/Dropbox/school/nios/kbs_periode_4_fpga_game/playstationtest_bsp//libucosii_bsp.a(os_cpu_c.o)
                                        0x866 (size before relaxing)
 .debug_str     0x0000000000002cda       0x26 /home/codedwrench/Dropbox/school/nios/kbs_periode_4_fpga_game/playstationtest_bsp//libucosii_bsp.a(alt_find_file.o)
                                        0x253 (size before relaxing)
 .debug_str     0x0000000000002d00       0x30 /home/codedwrench/Dropbox/school/nios/kbs_periode_4_fpga_game/playstationtest_bsp//libucosii_bsp.a(alt_get_fd.o)
                                        0x2f1 (size before relaxing)
 .debug_str     0x0000000000002d30       0x2c /home/codedwrench/Dropbox/school/nios/kbs_periode_4_fpga_game/playstationtest_bsp//libucosii_bsp.a(alt_icache_flush.o)
                                        0x163 (size before relaxing)
 .debug_str     0x0000000000002d5c       0x3a /home/codedwrench/Dropbox/school/nios/kbs_periode_4_fpga_game/playstationtest_bsp//libucosii_bsp.a(alt_irq_handler.o)
                                        0x1e8 (size before relaxing)
 .debug_str     0x0000000000002d96      0x48b /home/codedwrench/Dropbox/school/nios/kbs_periode_4_fpga_game/playstationtest_bsp//libucosii_bsp.a(alt_instruction_exception_entry.o)
                                        0x5a7 (size before relaxing)
 .debug_str     0x0000000000003221      0x177 /mnt/ssddata/altera_lite/15.1/nios2eds/bin/gnu/H-x86_64-pc-linux-gnu/bin/../lib/gcc/nios2-elf/4.9.2/../../../../../H-x86_64-pc-linux-gnu/nios2-elf/lib/mhw-mulx/libc.a(lib_a-atexit.o)
                                        0x210 (size before relaxing)
 .debug_str     0x0000000000003398       0x5f /mnt/ssddata/altera_lite/15.1/nios2eds/bin/gnu/H-x86_64-pc-linux-gnu/bin/../lib/gcc/nios2-elf/4.9.2/../../../../../H-x86_64-pc-linux-gnu/nios2-elf/lib/mhw-mulx/libc.a(lib_a-exit.o)
                                        0x5ad (size before relaxing)
 .debug_str     0x00000000000033f7       0xd5 /mnt/ssddata/altera_lite/15.1/nios2eds/bin/gnu/H-x86_64-pc-linux-gnu/bin/../lib/gcc/nios2-elf/4.9.2/../../../../../H-x86_64-pc-linux-gnu/nios2-elf/lib/mhw-mulx/libc.a(lib_a-impure.o)
                                        0x5a4 (size before relaxing)
 .debug_str     0x00000000000034cc       0x3f /mnt/ssddata/altera_lite/15.1/nios2eds/bin/gnu/H-x86_64-pc-linux-gnu/bin/../lib/gcc/nios2-elf/4.9.2/../../../../../H-x86_64-pc-linux-gnu/nios2-elf/lib/mhw-mulx/libc.a(lib_a-int_errno.o)
                                        0x1cc (size before relaxing)
 .debug_str     0x000000000000350b       0xd9 /mnt/ssddata/altera_lite/15.1/nios2eds/bin/gnu/H-x86_64-pc-linux-gnu/bin/../lib/gcc/nios2-elf/4.9.2/../../../../../H-x86_64-pc-linux-gnu/nios2-elf/lib/mhw-mulx/libc.a(lib_a-memcmp.o)
                                        0x1d3 (size before relaxing)
 .debug_str     0x00000000000035e4       0x6b /mnt/ssddata/altera_lite/15.1/nios2eds/bin/gnu/H-x86_64-pc-linux-gnu/bin/../lib/gcc/nios2-elf/4.9.2/../../../../../H-x86_64-pc-linux-gnu/nios2-elf/lib/mhw-mulx/libc.a(lib_a-memcpy.o)
                                        0x1fa (size before relaxing)
 .debug_str     0x000000000000364f       0x51 /mnt/ssddata/altera_lite/15.1/nios2eds/bin/gnu/H-x86_64-pc-linux-gnu/bin/../lib/gcc/nios2-elf/4.9.2/../../../../../H-x86_64-pc-linux-gnu/nios2-elf/lib/mhw-mulx/libc.a(lib_a-memset.o)
                                        0x1e7 (size before relaxing)
 .debug_str     0x00000000000036a0       0x44 /mnt/ssddata/altera_lite/15.1/nios2eds/bin/gnu/H-x86_64-pc-linux-gnu/bin/../lib/gcc/nios2-elf/4.9.2/../../../../../H-x86_64-pc-linux-gnu/nios2-elf/lib/mhw-mulx/libc.a(lib_a-strcmp.o)
                                        0x1cc (size before relaxing)
 .debug_str     0x00000000000036e4       0x44 /mnt/ssddata/altera_lite/15.1/nios2eds/bin/gnu/H-x86_64-pc-linux-gnu/bin/../lib/gcc/nios2-elf/4.9.2/../../../../../H-x86_64-pc-linux-gnu/nios2-elf/lib/mhw-mulx/libc.a(lib_a-strlen.o)
                                        0x1e6 (size before relaxing)
 .debug_str     0x0000000000003728       0x3f /mnt/ssddata/altera_lite/15.1/nios2eds/bin/gnu/H-x86_64-pc-linux-gnu/bin/../lib/gcc/nios2-elf/4.9.2/../../../../../H-x86_64-pc-linux-gnu/nios2-elf/lib/mhw-mulx/libc.a(lib_a-__atexit.o)
                                        0x5ec (size before relaxing)
 .debug_str     0x0000000000003767       0x60 /mnt/ssddata/altera_lite/15.1/nios2eds/bin/gnu/H-x86_64-pc-linux-gnu/bin/../lib/gcc/nios2-elf/4.9.2/../../../../../H-x86_64-pc-linux-gnu/nios2-elf/lib/mhw-mulx/libc.a(lib_a-__call_atexit.o)
                                        0x5d1 (size before relaxing)
 .debug_str     0x00000000000037c7       0x2a /home/codedwrench/Dropbox/school/nios/kbs_periode_4_fpga_game/playstationtest_bsp//libucosii_bsp.a(alt_exit.o)
                                        0x1bc (size before relaxing)

.debug_loc      0x0000000000000000      0x9c4
 *(.debug_loc)
 .debug_loc     0x0000000000000000       0x2c /mnt/ssddata/altera_lite/15.1/nios2eds/bin/gnu/H-x86_64-pc-linux-gnu/bin/../lib/gcc/nios2-elf/4.9.2/../../../../../H-x86_64-pc-linux-gnu/nios2-elf/lib/mhw-mulx/libc.a(lib_a-atexit.o)
 .debug_loc     0x000000000000002c       0x1e /mnt/ssddata/altera_lite/15.1/nios2eds/bin/gnu/H-x86_64-pc-linux-gnu/bin/../lib/gcc/nios2-elf/4.9.2/../../../../../H-x86_64-pc-linux-gnu/nios2-elf/lib/mhw-mulx/libc.a(lib_a-exit.o)
 .debug_loc     0x000000000000004a      0x126 /mnt/ssddata/altera_lite/15.1/nios2eds/bin/gnu/H-x86_64-pc-linux-gnu/bin/../lib/gcc/nios2-elf/4.9.2/../../../../../H-x86_64-pc-linux-gnu/nios2-elf/lib/mhw-mulx/libc.a(lib_a-memcmp.o)
 .debug_loc     0x0000000000000170      0x2a2 /mnt/ssddata/altera_lite/15.1/nios2eds/bin/gnu/H-x86_64-pc-linux-gnu/bin/../lib/gcc/nios2-elf/4.9.2/../../../../../H-x86_64-pc-linux-gnu/nios2-elf/lib/mhw-mulx/libc.a(lib_a-memcpy.o)
 .debug_loc     0x0000000000000412      0x190 /mnt/ssddata/altera_lite/15.1/nios2eds/bin/gnu/H-x86_64-pc-linux-gnu/bin/../lib/gcc/nios2-elf/4.9.2/../../../../../H-x86_64-pc-linux-gnu/nios2-elf/lib/mhw-mulx/libc.a(lib_a-memset.o)
 .debug_loc     0x00000000000005a2       0xb0 /mnt/ssddata/altera_lite/15.1/nios2eds/bin/gnu/H-x86_64-pc-linux-gnu/bin/../lib/gcc/nios2-elf/4.9.2/../../../../../H-x86_64-pc-linux-gnu/nios2-elf/lib/mhw-mulx/libc.a(lib_a-strcmp.o)
 .debug_loc     0x0000000000000652       0x47 /mnt/ssddata/altera_lite/15.1/nios2eds/bin/gnu/H-x86_64-pc-linux-gnu/bin/../lib/gcc/nios2-elf/4.9.2/../../../../../H-x86_64-pc-linux-gnu/nios2-elf/lib/mhw-mulx/libc.a(lib_a-strlen.o)
 .debug_loc     0x0000000000000699      0x185 /mnt/ssddata/altera_lite/15.1/nios2eds/bin/gnu/H-x86_64-pc-linux-gnu/bin/../lib/gcc/nios2-elf/4.9.2/../../../../../H-x86_64-pc-linux-gnu/nios2-elf/lib/mhw-mulx/libc.a(lib_a-__atexit.o)
 .debug_loc     0x000000000000081e      0x1a6 /mnt/ssddata/altera_lite/15.1/nios2eds/bin/gnu/H-x86_64-pc-linux-gnu/bin/../lib/gcc/nios2-elf/4.9.2/../../../../../H-x86_64-pc-linux-gnu/nios2-elf/lib/mhw-mulx/libc.a(lib_a-__call_atexit.o)

.debug_macinfo
 *(.debug_macinfo)

.debug_weaknames
 *(.debug_weaknames)

.debug_funcnames
 *(.debug_funcnames)

.debug_typenames
 *(.debug_typenames)

.debug_varnames
 *(.debug_varnames)

.debug_alt_sim_info
                0x0000000000000000       0x20
 *(.debug_alt_sim_info)
 .debug_alt_sim_info
                0x0000000000000000       0x20 /home/codedwrench/Dropbox/school/nios/kbs_periode_4_fpga_game/playstationtest_bsp//obj/HAL/src/crt0.o
                0x0000000004000000                __alt_data_end = 0x4000000
                0x0000000004000000                PROVIDE (__alt_stack_pointer, __alt_data_end)
                0x0000000000017eb0                PROVIDE (__alt_stack_limit, __alt_stack_base)
                0x0000000000017eb0                PROVIDE (__alt_heap_start, end)
                0x0000000004000000                PROVIDE (__alt_heap_limit, 0x4000000)
OUTPUT(playstationtest.elf elf32-littlenios2)

.debug_ranges   0x0000000000000000      0x148
 .debug_ranges  0x0000000000000000       0x20 /home/codedwrench/Dropbox/school/nios/kbs_periode_4_fpga_game/playstationtest_bsp//obj/HAL/src/crt0.o
 .debug_ranges  0x0000000000000020       0x28 /home/codedwrench/Dropbox/school/nios/kbs_periode_4_fpga_game/playstationtest_bsp//libucosii_bsp.a(alt_irq_entry.o)
 .debug_ranges  0x0000000000000048       0x10 /home/codedwrench/Dropbox/school/nios/kbs_periode_4_fpga_game/playstationtest_bsp//libucosii_bsp.a(alt_irq_handler.o)
 .debug_ranges  0x0000000000000058       0x30 /home/codedwrench/Dropbox/school/nios/kbs_periode_4_fpga_game/playstationtest_bsp//libucosii_bsp.a(alt_exception_entry.o)
 .debug_ranges  0x0000000000000088       0x18 /home/codedwrench/Dropbox/school/nios/kbs_periode_4_fpga_game/playstationtest_bsp//libucosii_bsp.a(alt_instruction_exception_entry.o)
 .debug_ranges  0x00000000000000a0       0x10 /mnt/ssddata/altera_lite/15.1/nios2eds/bin/gnu/H-x86_64-pc-linux-gnu/bin/../lib/gcc/nios2-elf/4.9.2/../../../../../H-x86_64-pc-linux-gnu/nios2-elf/lib/mhw-mulx/libc.a(lib_a-atexit.o)
 .debug_ranges  0x00000000000000b0       0x10 /mnt/ssddata/altera_lite/15.1/nios2eds/bin/gnu/H-x86_64-pc-linux-gnu/bin/../lib/gcc/nios2-elf/4.9.2/../../../../../H-x86_64-pc-linux-gnu/nios2-elf/lib/mhw-mulx/libc.a(lib_a-exit.o)
 .debug_ranges  0x00000000000000c0       0x10 /mnt/ssddata/altera_lite/15.1/nios2eds/bin/gnu/H-x86_64-pc-linux-gnu/bin/../lib/gcc/nios2-elf/4.9.2/../../../../../H-x86_64-pc-linux-gnu/nios2-elf/lib/mhw-mulx/libc.a(lib_a-memcmp.o)
 .debug_ranges  0x00000000000000d0       0x10 /mnt/ssddata/altera_lite/15.1/nios2eds/bin/gnu/H-x86_64-pc-linux-gnu/bin/../lib/gcc/nios2-elf/4.9.2/../../../../../H-x86_64-pc-linux-gnu/nios2-elf/lib/mhw-mulx/libc.a(lib_a-memcpy.o)
 .debug_ranges  0x00000000000000e0       0x10 /mnt/ssddata/altera_lite/15.1/nios2eds/bin/gnu/H-x86_64-pc-linux-gnu/bin/../lib/gcc/nios2-elf/4.9.2/../../../../../H-x86_64-pc-linux-gnu/nios2-elf/lib/mhw-mulx/libc.a(lib_a-memset.o)
 .debug_ranges  0x00000000000000f0       0x10 /mnt/ssddata/altera_lite/15.1/nios2eds/bin/gnu/H-x86_64-pc-linux-gnu/bin/../lib/gcc/nios2-elf/4.9.2/../../../../../H-x86_64-pc-linux-gnu/nios2-elf/lib/mhw-mulx/libc.a(lib_a-strcmp.o)
 .debug_ranges  0x0000000000000100       0x10 /mnt/ssddata/altera_lite/15.1/nios2eds/bin/gnu/H-x86_64-pc-linux-gnu/bin/../lib/gcc/nios2-elf/4.9.2/../../../../../H-x86_64-pc-linux-gnu/nios2-elf/lib/mhw-mulx/libc.a(lib_a-strlen.o)
 .debug_ranges  0x0000000000000110       0x10 /mnt/ssddata/altera_lite/15.1/nios2eds/bin/gnu/H-x86_64-pc-linux-gnu/bin/../lib/gcc/nios2-elf/4.9.2/../../../../../H-x86_64-pc-linux-gnu/nios2-elf/lib/mhw-mulx/libc.a(lib_a-__atexit.o)
 .debug_ranges  0x0000000000000120       0x28 /mnt/ssddata/altera_lite/15.1/nios2eds/bin/gnu/H-x86_64-pc-linux-gnu/bin/../lib/gcc/nios2-elf/4.9.2/../../../../../H-x86_64-pc-linux-gnu/nios2-elf/lib/mhw-mulx/libc.a(lib_a-__call_atexit.o)
